L166 LINKER/LOCATER V5.25                                                               12/14/2017  11:31:13  PAGE 1


L166 LINKER/LOCATER V5.25, INVOKED BY:
C:\KEIL\C166\BIN\L166.EXE .\output\START_V2.obj, .\output\asmbsl.obj, .\output\main.obj, .\output\process.obj, .\output\
>> vers79511901.obj, .\output\protocol.obj, .\output\devices.obj, .\output\can.obj, .\output\settings.obj, .\output\asc0
>> .obj, .\output\flash.obj, .\output\system.obj, .\output\bsl.obj, .\output\bdmg.obj, .\output\bdgp.obj, .\output\bdsp.
>> obj TO .\output\BS_79511901 IXREF CLASSES (ICODE (0X0-0X7FFF), FCODE (0X22500-0X3FFFF), FCONST (0X0-0X7FFF, 0X18000-0
>> X4FFFF), HCONST (0X0-0X7FFF, 0X18000-0X4FFFF), XCONST (0X0-0X7FFF, 0X18000-0X4FFFF), NCONST (0X4000-0X7FFF), RESERVE 
>> (0X022000-0X022500), NDATA (0X050000-0X051FFF), NDATA0 (0X050000-0X051FFF), SDATA (0XF600-0XFDFF), SDATA0 (0XF600-0XF
>> DFF), IDATA (0XF600-0XFDFF), IDATA0 (0XF600-0XFDFF), FDATA (0X600000-0X603FFF), FDATA0 (0X600000-0X603FFF), HDATA (0X
>> 604000-0X613FFF), HDATA0 (0X604000-0X613FFF), XDATA (0X600000-0X67FFFF), XDATA0 (0X600000-0X67FFFF)) CINITTAB (0X1800
>> 0-0X4FFFF)


CPU TYPE:     C167 or derivative
CPU MODE:     SEGMENTED
MEMORY MODEL: XLARGE WITH FLOATING POINT ARITHMETIC


INPUT MODULES INCLUDED:
  .\output\START_V2.obj (?C_STARTUP)
         COMMENT TYPE 128: A166 V5.36.0.1
  .\output\asmbsl.obj (ASMBSL)
         COMMENT TYPE 128: A166 V5.36.0.1
  .\output\main.obj (MAIN)
         COMMENT TYPE 128: C166 V7.53.0.0
  .\output\process.obj (PROCESS)
         COMMENT TYPE 128: C166 V7.53.0.0
  .\output\vers79511901.obj (VERS79511901)
         COMMENT TYPE 128: C166 V7.53.0.0
  .\output\protocol.obj (PROTOCOL)
         COMMENT TYPE 128: C166 V7.53.0.0
  .\output\devices.obj (DEVICES)
         COMMENT TYPE 128: C166 V7.53.0.0
  .\output\can.obj (CAN)
         COMMENT TYPE 128: C166 V7.53.0.0
  .\output\settings.obj (SETTINGS)
         COMMENT TYPE 128: C166 V7.53.0.0
  .\output\asc0.obj (ASC0)
         COMMENT TYPE 128: C166 V7.53.0.0
  .\output\flash.obj (FLASH)
         COMMENT TYPE 128: C166 V7.53.0.0
  .\output\system.obj (SYSTEM)
         COMMENT TYPE 128: C166 V7.53.0.0
  .\output\bsl.obj (BSL)
         COMMENT TYPE 128: C166 V7.53.0.0
  .\output\bdmg.obj (BDMG)
         COMMENT TYPE 128: C166 V7.53.0.0
  .\output\bdgp.obj (BDGP)
         COMMENT TYPE 128: C166 V7.53.0.0
  .\output\bdsp.obj (BDSP)
         COMMENT TYPE 128: C166 V7.53.0.0
  C:\KEIL\C166\LIB\C167FPXL.LIB (?C_FPADD)
         COMMENT TYPE 128: A166 V5.33
  C:\KEIL\C166\LIB\C167FPXL.LIB (?C_FPMUL)
         COMMENT TYPE 128: A166 V5.33
  C:\KEIL\C166\LIB\C167FPXL.LIB (?C_FPDIV)
         COMMENT TYPE 128: A166 V5.33
  C:\KEIL\C166\LIB\C167FPXL.LIB (?C_CASTF)
         COMMENT TYPE 128: A166 V5.33
L166 LINKER/LOCATER V5.25                                                             12/14/2017  11:31:13  PAGE 2


  C:\KEIL\C166\LIB\C167FPXL.LIB (?C_FCAST)
         COMMENT TYPE 128: A166 V5.33
  C:\KEIL\C166\LIB\C167FPXL.LIB (?C_FPCMP)
         COMMENT TYPE 128: A166 V5.33
  C:\KEIL\C166\LIB\C167FPXL.LIB (LOG)
         COMMENT TYPE 128: A166 V5.33
  C:\KEIL\C166\LIB\C167FPXL.LIB (SQRT)
         COMMENT TYPE 128: A166 V5.33
  C:\KEIL\C166\LIB\C167FPXL.LIB (POW)
         COMMENT TYPE 128: C166 V7.04
  C:\KEIL\C166\LIB\C167FPXL.LIB (?C_FPGETOPN)
         COMMENT TYPE 128: A166 V5.33
  C:\KEIL\C166\LIB\C167FPXL.LIB (?C_FPEQUATES)
         COMMENT TYPE 128: A166 V5.33
  C:\KEIL\C166\LIB\C167FPXL.LIB (?C_FPNEG)
         COMMENT TYPE 128: A166 V5.33
  C:\KEIL\C166\LIB\C167FPXL.LIB (?C_FPSERIES)
         COMMENT TYPE 128: A166 V5.33
  C:\KEIL\C166\LIB\C167FPXL.LIB (EXP)
         COMMENT TYPE 128: A166 V5.33
  C:\KEIL\C166\LIB\C167XL.LIB (?C_LMUL)
         COMMENT TYPE 128: A166 V5.33
  C:\KEIL\C166\LIB\C167XL.LIB (?C_ULDIV)
         COMMENT TYPE 128: A166 V5.33
  C:\KEIL\C166\LIB\C167XL.LIB (?C_HCASTS)
         COMMENT TYPE 128: A166 V5.33
  C:\KEIL\C166\LIB\C167XL.LIB (?C_HLOADL)
         COMMENT TYPE 128: A166 V5.33
  C:\KEIL\C166\LIB\C167XL.LIB (?C_HSTOREL)
         COMMENT TYPE 128: A166 V5.33
  C:\KEIL\C166\LIB\C167XL.LIB (?C_HSTOREIU)
         COMMENT TYPE 128: A166 V5.33
  C:\KEIL\C166\LIB\C167XL.LIB (?C_HSTORELU)
         COMMENT TYPE 128: A166 V5.33
  C:\KEIL\C166\LIB\C167XL.LIB (?C_BCPYNX)
         COMMENT TYPE 128: A166 V5.33
  C:\KEIL\C166\LIB\C167XL.LIB (MEMCPY)
         COMMENT TYPE 128: A166 V5.33
  C:\KEIL\C166\LIB\C167XL.LIB (MEMSET)
         COMMENT TYPE 128: C166 V7.04
  C:\KEIL\C166\LIB\C167XL.LIB (ABS)
         COMMENT TYPE 128: C166 V7.04
  C:\KEIL\C166\LIB\C167XL.LIB (INIT_MEM)
         COMMENT TYPE 128: C166 V7.04
  C:\KEIL\C166\LIB\C167XL.LIB (FREE)
         COMMENT TYPE 128: C166 V7.04
  C:\KEIL\C166\LIB\C167XL.LIB (MALLOC)
         COMMENT TYPE 128: C166 V7.04
  C:\KEIL\C166\LIB\C167XL.LIB (XMEMSET)
         COMMENT TYPE 128: C166 V7.04


INTERRUPT PROCEDURES OF MODULE:  .\output\BS_79511901 (?C_STARTUP)


INTERRUPT PROCEDURE                 INT  INTERRUPT NAME
=======================================================
L166 LINKER/LOCATER V5.25                                                             12/14/2017  11:31:13  PAGE 3


?C_RESET                              0  RESET
CANINTERRUPT                        103  ---  
Process_MainProc                     32  ---  
CAN_Interrupt0                       84  ---  
CAN_Interrupt1                       85  ---  
CAN_Interrupt2                       86  ---  
CAN_Interrupt3                       87  ---  
CAN_Interrupt4                       89  ---  
CAN_Interrupt5                       90  ---  
CAN_Interrupt6                       91  ---  
CAN_Interrupt7                       92  ---  
CAN_Interrupt8                       96  ---  
CAN_Interrupt9                       97  ---  
CAN_Interrupt10                      98  ---  
CAN_Interrupt11                      99  ---  
serial_TX_irq                        42  S0TINT
serial_TX_BUF_irc                    71  S0TBINT
serial_RX_irq                        43  S0RINT
_timer1                              33  ---  
_timer3                              35  ---  


MEMORY MAP OF MODULE:  .\output\BS_79511901 (?C_STARTUP)


START     STOP      LENGTH    TYPE  RTYP  ALIGN  TGR  GRP  COMB  CLASS   SECTION NAME
=====================================================================================
000000H   000003H   000004H   ---   ---   ---    ---  ---  ---   * INTVECTOR TABLE *
000004H   000053H   000050H   XDATA REL   WORD   ---  ---  PUBL  XCONST  ?XC?BDSP
000054H   00007BH   000028H   XDATA REL   WORD   ---  ---  PUBL  XCONST  ?XC?BDMG
000080H   000087H   000008H   ---   ---   ---    ---  ---  ---   * INTVECTOR TABLE *
00008CH   00008FH   000004H   ---   ---   ---    ---  ---  ---   * INTVECTOR TABLE *
000090H   000097H   000008H   XDATA REL   WORD   ---  ---  PUBL  XCONST  ?XC?BSL
0000A8H   0000AFH   000008H   ---   ---   ---    ---  ---  ---   * INTVECTOR TABLE *
00011CH   00011FH   000004H   ---   ---   ---    ---  ---  ---   * INTVECTOR TABLE *
000150H   00015FH   000010H   ---   ---   ---    ---  ---  ---   * INTVECTOR TABLE *
000164H   000173H   000010H   ---   ---   ---    ---  ---  ---   * INTVECTOR TABLE *
000180H   00018FH   000010H   ---   ---   ---    ---  ---  ---   * INTVECTOR TABLE *
00019CH   00019FH   000004H   ---   ---   ---    ---  ---  ---   * INTVECTOR TABLE *
0001A0H   000231H   000092H   CODE  REL   WORD   ---  ---  PRIV  ICODE   ?C_STARTUP_CODE
000232H   0007D9H   0005A8H   XDATA REL   WORD   ---  ---  PUBL  XCONST  ?XC?BDGP
004000H   00402BH   00002CH   DATA  REL   WORD   ---    2  PRIV  NCONST  ?NC?LOG
00402CH   004053H   000028H   DATA  REL   WORD   ---    2  PRIV  NCONST  ?NC?EXP
004054H   00405AH   000007H   DATA  REL   WORD   ---    2  PUBL  NCONST  ?NC?BDGP
00405CH   004061H   000006H   DATA  REL   WORD   ---    2  PUBL  NCONST  ?NC?VERS79511901
004062H   004065H   000004H   DATA  REL   WORD   ---    2  PUBL  NCONST  ?NC?MAIN
004066H   004067H   000002H   DATA  REL   BYTE   ---    2  PUBL  NCONST  ?NC?BDMG
00FA00H   00FBFFH   000200H   ---   ---   ---    ---  ---  ---   * SYSTEM STACK *
00FC00H   00FC1FH   000020H   DATA  ---   BYTE   ---  ---  ---   *REG*   ?C_MAINREGISTERS
00FD00H.0 00FD00H.2 000000H.3 BIT   REL   BIT    ---  ---  PUBL  BIT0    ?BI0?ASC0
018000H   0180A9H   0000AAH   XDATA REL   WORD   ---  ---  GLOB  ---     ?C_INITSEC
0180AAH   01812FH   000086H   CONST ABS   WORD   ---  ---  PRIV  ---     ?C_CLRMEMSEC
022500H   025A89H   00358AH   CODE  REL   WORD   ---  ---  PUBL  FCODE   ?PR?BDSP
025A8AH   028255H   0027CCH   CODE  REL   WORD   ---  ---  PUBL  FCODE   ?PR?BDGP
028256H   029A5BH   001806H   CODE  REL   WORD   ---  ---  PUBL  FCODE   ?PR?PROTOCOL
029A5CH   02A8CFH   000E74H   CODE  REL   WORD   ---  ---  PUBL  FCODE   ?PR?CAN
02A8D0H   02B1D9H   00090AH   CODE  REL   WORD   ---  ---  PUBL  FCODE   ?PR?BDMG
L166 LINKER/LOCATER V5.25                                                             12/14/2017  11:31:13  PAGE 4


02B1DAH   02B93DH   000764H   CODE  REL   WORD   ---  ---  PUBL  FCODE   ?C_LIB_CODE
02B93EH   02BE3FH   000502H   CODE  REL   WORD   ---  ---  PUBL  FCODE   ?PR?PROCESS
02BE40H   02C063H   000224H   CODE  REL   WORD   ---  ---  PUBL  FCODE   ?PR?FLASH
02C064H   02C27BH   000218H   CODE  REL   WORD   ---  ---  PUBL  FCODE   ?PR?SETTINGS
02C27CH   02C3D3H   000158H   CODE  REL   WORD   ---  ---  PUBL  FCODE   ?PR?SYSTEM
02C3D4H   02C501H   00012EH   CODE  REL   WORD   ---  ---  PUBL  FCODE   ?PR?FREE
02C502H   02C5FDH   0000FCH   CODE  REL   WORD   ---  ---  PUBL  FCODE   ?PR?ASC0
02C5FEH   02C6EFH   0000F2H   CODE  REL   WORD   ---  ---  PUBL  FCODE   ?PR?MAIN
02C6F0H   02C7BDH   0000CEH   CODE  REL   WORD   ---  ---  PUBL  FCODE   ?PR?POW
02C7BEH   02C887H   0000CAH   CODE  REL   WORD   ---  ---  PUBL  FCODE   ?PR?DEVICES
02C888H   02C925H   00009EH   CODE  REL   WORD   ---  ---  PUBL  FCODE   ?PR?MALLOC
02C926H   02C957H   000032H   CODE  REL   WORD   ---  ---  PUBL  FCODE   ?PR?BSL
02C958H   02C985H   00002EH   CODE  REL   WORD   ---  ---  PUBL  FCODE   ?PR?INIT_MEM
02C986H   02C9A5H   000020H   CODE  REL   WORD   ---  ---  PUBL  FCODE   ?PR?XMEMSET
02C9A6H   02C9C1H   00001CH   CODE  REL   WORD   ---  ---  PRIV  FCODE   ?PR?MEMCPY
02C9C2H   02C9D9H   000018H   CODE  REL   WORD   ---  ---  PUBL  FCODE   ?PR?MEMSET
02C9DAH   02C9E7H   00000EH   CODE  REL   WORD   ---  ---  PUBL  FCODE   ?PR?ABS
04E000H   04E363H   000364H   CODE  ABS   AT..   ---  ---  PRIV  ---     BSLSECTION
04F000H   04F0C9H   0000CAH   CODE  ABS   AT..   ---  ---  PRIV  ---     BSLINTERRUPT
050000H   0503FFH   000400H   DATA  REL   WORD   ---    1  PUBL  NDATA   ?C_USERSTACK
050400H   050491H   000092H   DATA  REL   WORD   ---    1  PUBL  NDATA0  ?ND0?PROTOCOL
050492H   05050BH   00007AH   DATA  REL   WORD   ---    1  PUBL  NDATA0  ?ND0?BDSP
05050CH   050521H   000016H   DATA  REL   WORD   ---    1  PUBL  NDATA0  ?ND0?PROCESS
050522H   050526H   000005H   DATA  REL   WORD   ---    1  PUBL  NDATA0  ?ND0?BDMG
050527H   05052BH   000005H   DATA  REL   BYTE   ---    1  PUBL  NDATA0  ?ND0?BDGP
05052CH   05052EH   000003H   DATA  REL   WORD   ---    1  PUBL  NDATA0  ?ND0?CAN
05052FH   05052FH   000001H   DATA  REL   BYTE   ---    1  PUBL  NDATA0  ?ND0?MAIN
050530H   050531H   000002H   DATA  REL   WORD   ---    1  PUBL  NDATA0  ?ND0?SYSTEM
600000H   621997H   021998H   XDATA REL   WORD   ---  ---  PUBL  XDATA0  ?XD0?BDSP
621998H   622997H   001000H   XDATA REL   WORD   ---  ---  PUBL  XDATA0  ?XD0?MAIN
622998H   6237EBH   000E54H   XDATA REL   WORD   ---  ---  PUBL  XDATA0  ?XD0?BDGP
6237ECH   623E2FH   000644H   XDATA REL   WORD   ---  ---  PUBL  XDATA0  ?XD0?CAN
623E30H   62445BH   00062CH   XDATA REL   WORD   ---  ---  PUBL  XDATA0  ?XD0?PROTOCOL
62445CH   6244B1H   000056H   XDATA REL   WORD   ---  ---  PUBL  XDATA0  ?XD0?BDMG
6244B2H   6244DFH   00002EH   XDATA REL   WORD   ---  ---  PUBL  XDATA0  ?XD0?SETTINGS
6244E0H   6244E3H   000004H   XDATA REL   WORD   ---  ---  PUBL  XDATA0  ?XD0?INIT_MEM



GROUP LIST OF MODULE:  .\output\BS_79511901 (?C_STARTUP)


GROUP NAME                           TYPE  TGR  GRP  CLASS       SECTION NAME
=============================================================================
NDATA                                DATA  ---    1  NDATA       ?C_USERSTACK
                                                     NDATA0      ?ND0?MAIN
                                                     NDATA0      ?ND0?PROCESS
                                                     NDATA0      ?ND0?PROTOCOL
                                                     NDATA0      ?ND0?CAN
                                                     NDATA0      ?ND0?SYSTEM
                                                     NDATA0      ?ND0?BDMG
                                                     NDATA0      ?ND0?BDGP
                                                     NDATA0      ?ND0?BDSP

NCONST                               DATA  ---    2  NCONST      ?NC?MAIN
                                                     NCONST      ?NC?VERS79511901
                                                     NCONST      ?NC?BDMG
L166 LINKER/LOCATER V5.25                                                             12/14/2017  11:31:13  PAGE 5


                                                     NCONST      ?NC?BDGP
                                                     NCONST      ?NC?LOG
                                                     NCONST      ?NC?EXP




PUBLIC SYMBOLS OF MODULE:  .\output\BS_79511901 (?C_STARTUP)


      VALUE       PUBLIC SYMBOL NAME               REP   TGR  CLASS   SECTION
      =======================================================================
      02B92CH     ?C_BCPYNX                        LABEL ---  FCODE   ?C_LIB_CODE
      02B41EH     ?C_CASTF                         LABEL ---  FCODE   ?C_LIB_CODE
      0180AAH     ?C_CLRMEMSECSTART                VAR   ---  ---     ---
      000033H     ?C_DPPRECISION                   CONST ---  ---     ---
      02B47AH     ?C_FCAST                         LABEL ---  FCODE   ?C_LIB_CODE
      02B752H     ?C_FP2SERIES                     LABEL ---  FCODE   ?C_LIB_CODE
      02B1DEH     ?C_FPADD                         LABEL ---  FCODE   ?C_LIB_CODE
      02B4C0H     ?C_FPCMP                         LABEL ---  FCODE   ?C_LIB_CODE
      02B356H     ?C_FPDIV                         LABEL ---  FCODE   ?C_LIB_CODE
      02B6DEH     ?C_FPGETOPN                      LABEL ---  FCODE   ?C_LIB_CODE
      02B70CH     ?C_FPINFRSL                      LABEL ---  FCODE   ?C_LIB_CODE
      02B2C2H     ?C_FPMUL                         LABEL ---  FCODE   ?C_LIB_CODE
      02B704H     ?C_FPNANRSL                      LABEL ---  FCODE   ?C_LIB_CODE
      02B742H     ?C_FPNEG                         LABEL ---  FCODE   ?C_LIB_CODE
      02B72EH     ?C_FPNOERR                       LABEL ---  FCODE   ?C_LIB_CODE
      02B718H     ?C_FPOPRSL                       LABEL ---  FCODE   ?C_LIB_CODE
      000015H     ?C_FPPRECISION                   CONST ---  ---     ---
      02B724H     ?C_FPRSLNR                       LABEL ---  FCODE   ?C_LIB_CODE
      02B75AH     ?C_FPSERIES                      LABEL ---  FCODE   ?C_LIB_CODE
      02B1DAH     ?C_FPSUB                         LABEL ---  FCODE   ?C_LIB_CODE
      02B73CH     ?C_FPUNFRS                       LABEL ---  FCODE   ?C_LIB_CODE
      02B21CH     ?C_FPXSUB                        LABEL ---  FCODE   ?C_LIB_CODE
      02B73CH     ?C_FPZERRSL                      LABEL ---  FCODE   ?C_LIB_CODE
      02B8B6H     ?C_HCASTS                        LABEL ---  FCODE   ?C_LIB_CODE
      02B8E4H     ?C_HLOADL                        LABEL ---  FCODE   ?C_LIB_CODE
      02B900H     ?C_HSTOREIU                      LABEL ---  FCODE   ?C_LIB_CODE
      02B8F2H     ?C_HSTOREL                       LABEL ---  FCODE   ?C_LIB_CODE
      02B90EH     ?C_HSTORELU                      LABEL ---  FCODE   ?C_LIB_CODE
      018000H     ?C_INITSECSTART                  VAR   ---  ---     ---
      02B80CH     ?C_LMUL                          LABEL ---  FCODE   ?C_LIB_CODE
      000000H     ?C_NCONSTBASE                    CONST ---  ---     ---
      000000H     ?C_NCONSTBASESEG                 CONST ---  ---     ---
      048000H     ?C_NDATABASE                     CONST ---  ---     ---
      000004H     ?C_NDATABASESEG                  CONST ---  ---     ---
      000000H     ?C_PAGEDPP0                      CONST ---  ---     ---
      000001H     ?C_PAGEDPP1                      CONST ---  ---     ---
      000014H     ?C_PAGEDPP2                      CONST ---  ---     ---
      0001A0H     ?C_STARTUP                       LABEL ---  ICODE   ?C_STARTUP_CODE
      00FA00H     ?C_SYSSTKBOT                     CONST ---  ---     ---
      02B824H     ?C_ULDIV                         LABEL ---  FCODE   ?C_LIB_CODE
      050000H     ?C_USRSTKBOT                     VAR   ---  NDATA   ?C_USERSTACK
      0261E8H     BDGP_BackgroundAccumulation      LABEL ---  FCODE   ?PR?BDGP
      0279BAH     BDGP_BackgroundIdentification    LABEL ---  FCODE   ?PR?BDGP
      0278D6H     BDGP_DataArrayCorrection         LABEL ---  FCODE   ?PR?BDGP
      02665CH     BDGP_DirectionDiagramm           LABEL ---  FCODE   ?PR?BDGP
L166 LINKER/LOCATER V5.25                                                             12/14/2017  11:31:13  PAGE 6


      025D58H     BDGP_ForcedStart                 LABEL ---  FCODE   ?PR?BDGP
      027892H     BDGP_GetAngularDiagram           LABEL ---  FCODE   ?PR?BDGP
      026636H     BDGP_GetAverageDoseRate          LABEL ---  FCODE   ?PR?BDGP
      0281DCH     BDGP_GetBackgroundState          LABEL ---  FCODE   ?PR?BDGP
      026644H     BDGP_GetCurrentDoseRate          LABEL ---  FCODE   ?PR?BDGP
      0281CEH     BDGP_GetDose                     LABEL ---  FCODE   ?PR?BDGP
      0281C4H     BDGP_GetMaximumAngle             LABEL ---  FCODE   ?PR?BDGP
      0281E6H     BDGP_GetOutsideFeature           LABEL ---  FCODE   ?PR?BDGP
      026652H     BDGP_GetParametrs                LABEL ---  FCODE   ?PR?BDGP
      026618H     BDGP_InsertCmd                   LABEL ---  FCODE   ?PR?BDGP
      026418H     BDGP_InsertDataNew               LABEL ---  FCODE   ?PR?BDGP
      025D94H     BDGP_InsertParametrs             LABEL ---  FCODE   ?PR?BDGP
      025ABEH     BDGP_MaxCounter                  LABEL ---  FCODE   ?PR?BDGP
      025B5CH     BDGP_MaxSumSensData              LABEL ---  FCODE   ?PR?BDGP
      025A8AH     BDGP_MinCounter                  LABEL ---  FCODE   ?PR?BDGP
      025AF0H     BDGP_MinSumSensData              LABEL ---  FCODE   ?PR?BDGP
      025C20H     BDGP_ParametrRequest             LABEL ---  FCODE   ?PR?BDGP
      027B08H     BDGP_Process                     LABEL ---  FCODE   ?PR?BDGP
      025BC6H     BDGP_Reset                       LABEL ---  FCODE   ?PR?BDGP
      0263E6H     BDGP_ResetBackgroundData         LABEL ---  FCODE   ?PR?BDGP
      025D44H     BDGP_Start                       LABEL ---  FCODE   ?PR?BDGP
      025D08H     BDGP_StartWritingParametrs       LABEL ---  FCODE   ?PR?BDGP
      025D80H     BDGP_Stop                        LABEL ---  FCODE   ?PR?BDGP
      025C80H     BDGP_WriteParametr               LABEL ---  FCODE   ?PR?BDGP
      000506H     BDGPdirectionCoef                VAR   ---  XCONST  ?XC?BDGP
      02A932H     BDMG_ForcedStart                 LABEL ---  FCODE   ?PR?BDMG
      02B144H     BDMG_GetCurrentDose              LABEL ---  FCODE   ?PR?BDMG
      02B152H     BDMG_GetDose                     LABEL ---  FCODE   ?PR?BDMG
      02B160H     BDMG_GetInsideFeature            LABEL ---  FCODE   ?PR?BDMG
      02B1D0H     BDMG_GetParametrs                LABEL ---  FCODE   ?PR?BDMG
      02AB3EH     BDMG_InsertCmd                   LABEL ---  FCODE   ?PR?BDMG
      02AA92H     BDMG_InsertData                  LABEL ---  FCODE   ?PR?BDMG
      02A99EH     BDMG_ParametrRequest             LABEL ---  FCODE   ?PR?BDMG
      02A8D0H     BDMG_Reset                       LABEL ---  FCODE   ?PR?BDMG
      02A90CH     BDMG_Start                       LABEL ---  FCODE   ?PR?BDMG
      02AA7CH     BDMG_StartWritingParametrs       LABEL ---  FCODE   ?PR?BDMG
      02A98AH     BDMG_Stop                        LABEL ---  FCODE   ?PR?BDMG
      02A9FAH     BDMG_WriteParametr               LABEL ---  FCODE   ?PR?BDMG
      0253A2H     BDPS_ClearQuery                  LABEL ---  FCODE   ?PR?BDSP
      0236E0H     BDSP_BackgroundAccumulation      LABEL ---  FCODE   ?PR?BDSP
      025560H     BDSP_CalculateAngularDiagram     LABEL ---  FCODE   ?PR?BDSP
      022500H     BDSP_CalculateIntegral           LABEL ---  FCODE   ?PR?BDSP
      0225B8H     BDSP_CalculateQuerySum           LABEL ---  FCODE   ?PR?BDSP
      02364CH     BDSP_ChannelInitCheck            LABEL ---  FCODE   ?PR?BDSP
      0252C8H     BDSP_ClearData                   LABEL ---  FCODE   ?PR?BDSP
      022AE2H     BDSP_ClearWorkData               LABEL ---  FCODE   ?PR?BDSP
      025428H     BDSP_DEBUG_GetQuerySumSpectr     LABEL ---  FCODE   ?PR?BDSP
      025A2EH     BDSP_GetAccumQueryState          LABEL ---  FCODE   ?PR?BDSP
      02553CH     BDSP_GetAccumulationSpectr       LABEL ---  FCODE   ?PR?BDSP
      0256FEH     BDSP_GetAngularDiagram           LABEL ---  FCODE   ?PR?BDSP
      025A6AH     BDSP_GetBackgroundQueryIntegral  LABEL ---  FCODE   ?PR?BDSP
      0257D4H     BDSP_GetBackgroundReady          LABEL ---  FCODE   ?PR?BDSP
      025518H     BDSP_GetChannelSpectr            LABEL ---  FCODE   ?PR?BDSP
      025402H     BDSP_GetCurrentSpectr            LABEL ---  FCODE   ?PR?BDSP
      02570EH     BDSP_GetDose                     LABEL ---  FCODE   ?PR?BDSP
      025766H     BDSP_GetDoseRate                 LABEL ---  FCODE   ?PR?BDSP
      025708H     BDSP_GetMaximumAngle             LABEL ---  FCODE   ?PR?BDSP
L166 LINKER/LOCATER V5.25                                                             12/14/2017  11:31:13  PAGE 7


      025A7EH     BDSP_GetMeasureInPointData       LABEL ---  FCODE   ?PR?BDSP
      025A24H     BDSP_GetParametrs                LABEL ---  FCODE   ?PR?BDSP
      024680H     BDSP_Identification              LABEL ---  FCODE   ?PR?BDSP
      023FD6H     BDSP_Identification128           LABEL ---  FCODE   ?PR?BDSP
      0233D6H     BDSP_InsertCmd                   LABEL ---  FCODE   ?PR?BDSP
      022B44H     BDSP_InsertData                  LABEL ---  FCODE   ?PR?BDSP
      023EA6H     BDSP_InsertInQuery               LABEL ---  FCODE   ?PR?BDSP
      0226A0H     BDSP_MaxCounter                  LABEL ---  FCODE   ?PR?BDSP
      022640H     BDSP_MinCounter                  LABEL ---  FCODE   ?PR?BDSP
      0235F6H     BDSP_ParametrRequest             LABEL ---  FCODE   ?PR?BDSP
      023552H     BDSP_ParametrRequests            LABEL ---  FCODE   ?PR?BDSP
      02580CH     BDSP_Process                     LABEL ---  FCODE   ?PR?BDSP
      0226FCH     BDSP_Reset                       LABEL ---  FCODE   ?PR?BDSP
      023DC0H     BDSP_ResetBackgroundData         LABEL ---  FCODE   ?PR?BDSP
      025A18H     BDSP_SetMeasureNumber            LABEL ---  FCODE   ?PR?BDSP
      022A9EH     BDSP_SetSpectrChannelSize        LABEL ---  FCODE   ?PR?BDSP
      022B1AH     BDSP_SetSpectrSize               LABEL ---  FCODE   ?PR?BDSP
      024FF0H     BDSP_SpectrAccumulation          LABEL ---  FCODE   ?PR?BDSP
      022A0AH     BDSP_Start                       LABEL ---  FCODE   ?PR?BDSP
      02352AH     BDSP_StartCalbiration            LABEL ---  FCODE   ?PR?BDSP
      024FCAH     BDSP_StartSpectrAccumulation     LABEL ---  FCODE   ?PR?BDSP
      023560H     BDSP_StartWritingParametrs       LABEL ---  FCODE   ?PR?BDSP
      022A54H     BDSP_Stop                        LABEL ---  FCODE   ?PR?BDSP
      0229F0H     BDSP_StopChannel                 LABEL ---  FCODE   ?PR?BDSP
      02357AH     BDSP_WriteParametr               LABEL ---  FCODE   ?PR?BDSP
      000232H     BDSPdirectionCoef                VAR   ---  XCONST  ?XC?BDGP
      02C926H     BSL_Init                         LABEL ---  FCODE   ?PR?BSL
      02C928H     BSL_Start                        LABEL ---  FCODE   ?PR?BSL
      02A1E8H     CAN_Init                         LABEL ---  FCODE   ?PR?CAN
      029A5CH     CAN_Interrupt0                   LABEL ---  FCODE   ?PR?CAN
      029B28H     CAN_Interrupt1                   LABEL ---  FCODE   ?PR?CAN
      02A0DAH     CAN_Interrupt10                  LABEL ---  FCODE   ?PR?CAN
      02A15CH     CAN_Interrupt11                  LABEL ---  FCODE   ?PR?CAN
      029BA8H     CAN_Interrupt2                   LABEL ---  FCODE   ?PR?CAN
      029C28H     CAN_Interrupt3                   LABEL ---  FCODE   ?PR?CAN
      029CA8H     CAN_Interrupt4                   LABEL ---  FCODE   ?PR?CAN
      029D34H     CAN_Interrupt5                   LABEL ---  FCODE   ?PR?CAN
      029DC0H     CAN_Interrupt6                   LABEL ---  FCODE   ?PR?CAN
      029F50H     CAN_Interrupt7                   LABEL ---  FCODE   ?PR?CAN
      029FD6H     CAN_Interrupt8                   LABEL ---  FCODE   ?PR?CAN
      02A058H     CAN_Interrupt9                   LABEL ---  FCODE   ?PR?CAN
      02A6A4H     CAN_Process                      LABEL ---  FCODE   ?PR?CAN
      02A788H     CAN_SendDefferedMessage          LABEL ---  FCODE   ?PR?CAN
      02A6CAH     CAN_SendMessage                  LABEL ---  FCODE   ?PR?CAN
      02A84CH     CAN_SendMessageIT                LABEL ---  FCODE   ?PR?CAN
      02C7CCH     Devices_ReceiveMsgCallback       LABEL ---  FCODE   ?PR?DEVICES
      02C7BEH     Devices_SendStateRequest         LABEL ---  FCODE   ?PR?DEVICES
      02BE40H     FLASH_EraseAll                   LABEL ---  FCODE   ?PR?FLASH
      02BEE6H     FLASH_EraseSector                LABEL ---  FCODE   ?PR?FLASH
      02C03EH     FLASH_FSRControl                 LABEL ---  FCODE   ?PR?FLASH
      02BFB4H     FLASH_WriteWord                  LABEL ---  FCODE   ?PR?FLASH
      0282C2H     IMDBProtocol_CreatePacket        LABEL ---  FCODE   ?PR?PROTOCOL
      0283DCH     IMDBProtocol_GetPacketFromStream LABEL ---  FCODE   ?PR?PROTOCOL
      028256H     IMDBProtocol_Init                LABEL ---  FCODE   ?PR?PROTOCOL
      029330H     IMDB_BDGPGetParametrsSignalCa... LABEL ---  FCODE   ?PR?PROTOCOL
      029354H     IMDB_BDGPWriteParametrsSignal... LABEL ---  FCODE   ?PR?PROTOCOL
      029324H     IMDB_BDMGGetParametrsSignalCa... LABEL ---  FCODE   ?PR?PROTOCOL
L166 LINKER/LOCATER V5.25                                                             12/14/2017  11:31:13  PAGE 8


      029360H     IMDB_BDMGWriteParametrsSignal... LABEL ---  FCODE   ?PR?PROTOCOL
      02933CH     IMDB_BDPSGetParametrsSignalCa... LABEL ---  FCODE   ?PR?PROTOCOL
      029348H     IMDB_BDPSWriteParametrsSignal... LABEL ---  FCODE   ?PR?PROTOCOL
      029A1EH     IMDB_DEBUG_SendDataMsg           LABEL ---  FCODE   ?PR?PROTOCOL
      0293CCH     IMDB_Metrology_AllBDParametrR... LABEL ---  FCODE   ?PR?PROTOCOL
      029400H     IMDB_Metrology_AllBDWritePara... LABEL ---  FCODE   ?PR?PROTOCOL
      02957EH     IMDB_Metrology_DefaultSettings   LABEL ---  FCODE   ?PR?PROTOCOL
      0296D8H     IMDB_Metrology_GetBDData         LABEL ---  FCODE   ?PR?PROTOCOL
      029596H     IMDB_Metrology_ReadBSParametrs   LABEL ---  FCODE   ?PR?PROTOCOL
      02990CH     IMDB_Metrology_SendAccumSpect... LABEL ---  FCODE   ?PR?PROTOCOL
      02943CH     IMDB_Metrology_SendBDParametrs   LABEL ---  FCODE   ?PR?PROTOCOL
      02984CH     IMDB_Metrology_SendCurrentSpe... LABEL ---  FCODE   ?PR?PROTOCOL
      029798H     IMDB_Metrology_SpectrometryMode  LABEL ---  FCODE   ?PR?PROTOCOL
      029648H     IMDB_Metrology_StartBD           LABEL ---  FCODE   ?PR?PROTOCOL
      0294E8H     IMDB_Metrology_WriteBDParametrs  LABEL ---  FCODE   ?PR?PROTOCOL
      0295ACH     IMDB_Metrology_WriteBSParametrs  LABEL ---  FCODE   ?PR?PROTOCOL
      02936CH     IMDB_NuclideDetectionSignalCa... LABEL ---  FCODE   ?PR?PROTOCOL
      029378H     IMDB_NuclideEndDetectionSigna... LABEL ---  FCODE   ?PR?PROTOCOL
      0293B4H     IMDB_NuclideIdentificationEnd... LABEL ---  FCODE   ?PR?PROTOCOL
      02939EH     IMDB_NuclideIdentificationSig... LABEL ---  FCODE   ?PR?PROTOCOL
      0286C0H     IMDB_PackageAnalysis             LABEL ---  FCODE   ?PR?PROTOCOL
      029044H     IMDB_Process                     LABEL ---  FCODE   ?PR?PROTOCOL
      028616H     IMDB_ReceiveByteCallback         LABEL ---  FCODE   ?PR?PROTOCOL
      028632H     IMDB_ReceiveByteReading          LABEL ---  FCODE   ?PR?PROTOCOL
      0292F2H     IMDB_ResetAllBDSignalCallback    LABEL ---  FCODE   ?PR?PROTOCOL
      02900CH     IMDB_SendAccumSpectrSuccess      LABEL ---  FCODE   ?PR?PROTOCOL
      029384H     IMDB_SendAccumSpectrSuccessSi... LABEL ---  FCODE   ?PR?PROTOCOL
      028F4CH     IMDB_SendAngularDistribution     LABEL ---  FCODE   ?PR?PROTOCOL
      029028H     IMDB_SendCalibrationState        LABEL ---  FCODE   ?PR?PROTOCOL
      028E92H     IMDB_SendCanTransmitError        LABEL ---  FCODE   ?PR?PROTOCOL
      028E22H     IMDB_SendDoseExceeded            LABEL ---  FCODE   ?PR?PROTOCOL
      028E3EH     IMDB_SendDoseRateExceeded        LABEL ---  FCODE   ?PR?PROTOCOL
      0295EAH     IMDB_SendError                   LABEL ---  FCODE   ?PR?PROTOCOL
      028B76H     IMDB_SendIdentification          LABEL ---  FCODE   ?PR?PROTOCOL
      028BAEH     IMDB_SendInsideDose              LABEL ---  FCODE   ?PR?PROTOCOL
      028D6AH     IMDB_SendInsideDoseFeature       LABEL ---  FCODE   ?PR?PROTOCOL
      028CD4H     IMDB_SendInsideDoseRate          LABEL ---  FCODE   ?PR?PROTOCOL
      028DB2H     IMDB_SendMaxAngle                LABEL ---  FCODE   ?PR?PROTOCOL
      0293C0H     IMDB_SendMeasureInPointEndSig... LABEL ---  FCODE   ?PR?PROTOCOL
      028EAEH     IMDB_SendMeasureInPointSuccess   LABEL ---  FCODE   ?PR?PROTOCOL
      028E5AH     IMDB_SendNuclideDetection        LABEL ---  FCODE   ?PR?PROTOCOL
      028E76H     IMDB_SendNuclideIdentification   LABEL ---  FCODE   ?PR?PROTOCOL
      028D8CH     IMDB_SendOutsideDoseFeature      LABEL ---  FCODE   ?PR?PROTOCOL
      028C5AH     IMDB_SendOutsideDoseRate         LABEL ---  FCODE   ?PR?PROTOCOL
      028EDEH     IMDB_SendPacket                  LABEL ---  FCODE   ?PR?PROTOCOL
      028BA8H     IMDB_SendReady                   LABEL ---  FCODE   ?PR?PROTOCOL
      0295FAH     IMDB_SendStartMeasureInPoint     LABEL ---  FCODE   ?PR?PROTOCOL
      028B86H     IMDB_SendState                   LABEL ---  FCODE   ?PR?PROTOCOL
      6244B2H     MainSettings                     VAR   ---  XDATA0  ?XD0?SETTINGS
      02B994H     Process_BDGPStatus               LABEL ---  FCODE   ?PR?PROCESS
      02B9ACH     Process_BDMGStatus               LABEL ---  FCODE   ?PR?PROCESS
      02B9C4H     Process_BDPSStatus               LABEL ---  FCODE   ?PR?PROCESS
      02BA00H     Process_GetBDGPState             LABEL ---  FCODE   ?PR?PROCESS
      02B9EEH     Process_GetBDMGState             LABEL ---  FCODE   ?PR?PROCESS
      02BA12H     Process_GetBDPSStatus            LABEL ---  FCODE   ?PR?PROCESS
      02BA32H     Process_GetInfo                  LABEL ---  FCODE   ?PR?PROCESS
      02BA38H     Process_GetOperationMode         LABEL ---  FCODE   ?PR?PROCESS
L166 LINKER/LOCATER V5.25                                                             12/14/2017  11:31:13  PAGE 9


      02B97AH     Process_GetWaitCounter           LABEL ---  FCODE   ?PR?PROCESS
      02BE0CH     Process_IMDBStart                LABEL ---  FCODE   ?PR?PROCESS
      02BE32H     Process_IMDBStop                 LABEL ---  FCODE   ?PR?PROCESS
      02B93EH     Process_Initializetion           LABEL ---  FCODE   ?PR?PROCESS
      02BA44H     Process_MainProc                 LABEL ---  FCODE   ?PR?PROCESS
      02B974H     Process_ResetWaitCounter         LABEL ---  FCODE   ?PR?PROCESS
      02B980H     Process_SetStatus                LABEL ---  FCODE   ?PR?PROCESS
      000000H     RESET                            INTNO ---  ---     ---
*EXTRN*     S0RINT                           ---   ---  ---     ---
*EXTRN*     S0TBINT                          ---   ---  ---     ---
      *EXTRN*     S0TINT                           ---   ---  ---     ---
      02C072H     SETTINGS_Default                 LABEL ---  FCODE   ?PR?SETTINGS
      02C064H     SETTINGS_Init                    LABEL ---  FCODE   ?PR?SETTINGS
      02C1F2H     SETTINGS_Load                    LABEL ---  FCODE   ?PR?SETTINGS
      02C14EH     SETTINGS_Save                    LABEL ---  FCODE   ?PR?SETTINGS
      004062H     SerialNumberBD                   VAR   ---  NCONST  ?NC?MAIN
      00405CH     ServiceMsg                       VAR   ---  NCONST  ?NC?VERS79511901
      02C336H     System_Delay                     LABEL ---  FCODE   ?PR?SYSTEM
      02C372H     System_LEDPulse                  LABEL ---  FCODE   ?PR?SYSTEM
      02C374H     System_LEDState                  LABEL ---  FCODE   ?PR?SYSTEM
      02C27CH     System_RAMTest                   LABEL ---  FCODE   ?PR?SYSTEM
      02C36AH     System_Reset                     LABEL ---  FCODE   ?PR?SYSTEM
      02C370H     System_WDT_Reset                 LABEL ---  FCODE   ?PR?SYSTEM
      6244E0H     __mp__                           VAR   ---  XDATA0  ?XD0?INIT_MEM
      02C3B6H     _timer1                          LABEL ---  FCODE   ?PR?SYSTEM
      02C3BCH     _timer3                          LABEL ---  FCODE   ?PR?SYSTEM
      02C9DAH     abs                              LABEL ---  FCODE   ?PR?ABS
      000074H     autoModeBDMGMsg                  VAR   ---  XCONST  ?XC?BDMG
      05051CH     counter                          VAR   ---  NDATA0  ?ND0?PROCESS
      02B77CH     exp                              LABEL ---  FCODE   ?C_LIB_CODE
      004054H     fNormalBDSPFactor                VAR   ---  NCONST  ?NC?BDGP
      02C3D4H     free                             LABEL ---  FCODE   ?PR?FREE
      00006CH     getDeadTime1Msg                  VAR   ---  XCONST  ?XC?BDMG
      000064H     getDeadTime2Msg                  VAR   ---  XCONST  ?XC?BDMG
      00005CH     getDeadTime3Msg                  VAR   ---  XCONST  ?XC?BDMG
      02C5B8H     init_asc0                        LABEL ---  FCODE   ?PR?ASC0
      02C958H     init_mempool                     LABEL ---  FCODE   ?PR?INIT_MEM
      050412H     interruptBuffer                  VAR   ---  NDATA0  ?ND0?PROTOCOL
      02B542H     log                              LABEL ---  FCODE   ?C_LIB_CODE
      02B61CH     log10                            LABEL ---  FCODE   ?C_LIB_CODE
      000034H     mResetBDSP                       VAR   ---  XCONST  ?XC?BDSP
      00001CH     mSpectrDoseRateOn                VAR   ---  XCONST  ?XC?BDSP
      00004CH     mSpectrGetAlignFctr              VAR   ---  XCONST  ?XC?BDSP
      000024H     mSpectrGetCorrFctr               VAR   ---  XCONST  ?XC?BDSP
      000044H     mSpectrGetDeadTime               VAR   ---  XCONST  ?XC?BDSP
      00000CH     mSpectrSize1024                  VAR   ---  XCONST  ?XC?BDSP
      00003CH     mSpectrSize128                   VAR   ---  XCONST  ?XC?BDSP
      000004H     mSpectrStartCalibration          VAR   ---  XCONST  ?XC?BDSP
      00002CH     mStartBDSP                       VAR   ---  XCONST  ?XC?BDSP
      000014H     mStopBDSP                        VAR   ---  XCONST  ?XC?BDSP
      02C5FEH     main                             LABEL ---  FCODE   ?PR?MAIN
      02C888H     malloc                           LABEL ---  FCODE   ?PR?MALLOC
      621998H     malloc_mempool                   VAR   ---  XDATA0  ?XD0?MAIN
      02C9A6H     memcpy                           LABEL ---  FCODE   ?PR?MEMCPY
      02C9C2H     memset                           LABEL ---  FCODE   ?PR?MEMSET
      02C6F0H     pow                              LABEL ---  FCODE   ?PR?POW
      050521H     processByte                      VAR   ---  NDATA0  ?ND0?PROCESS
L166 LINKER/LOCATER V5.25                                                             12/14/2017  11:31:13  PAGE 10


      050400H     rIndex                           VAR   ---  NDATA0  ?ND0?PROTOCOL
      05052FH     ramTestOK                        VAR   ---  NDATA0  ?ND0?MAIN
      623E30H     receiveBuffer                    VAR   ---  XDATA0  ?XD0?PROTOCOL
      004059H     resetBDGPMsg                     VAR   ---  NCONST  ?NC?BDGP
      000054H     resetBDMGMsg                     VAR   ---  XCONST  ?XC?BDMG
      02C55CH     sendbyte                         LABEL ---  FCODE   ?PR?ASC0
      02C50AH     serial_RX_irq                    LABEL ---  FCODE   ?PR?ASC0
      02C506H     serial_TX_BUF_irc                LABEL ---  FCODE   ?PR?ASC0
      02C502H     serial_TX_irq                    LABEL ---  FCODE   ?PR?ASC0
      02B62EH     sqrt                             LABEL ---  FCODE   ?C_LIB_CODE
      004058H     startBDGPMsg                     VAR   ---  NCONST  ?NC?BDGP
      004066H     startBDMGMsg                     VAR   ---  NCONST  ?NC?BDMG
      00405AH     stopBDGPMsg                      VAR   ---  NCONST  ?NC?BDGP
      004067H     stopBDMGMsg                      VAR   ---  NCONST  ?NC?BDMG
      050406H     testMS                           VAR   ---  NDATA0  ?ND0?PROTOCOL
      02C986H     xmemset                          LABEL ---  FCODE   ?PR?XMEMSET




SYMBOL TABLE OF MODULE:  .\output\BS_79511901 (?C_STARTUP)

      VALUE       TYPE      REP       LENGTH  TGR   SYMBOL NAME
      =========================================================
      0001A0H     PUBLIC    LABEL     ---     ---   ?C_STARTUP
      050000H     PUBLIC    VAR       ---     ---   ?C_USRSTKBOT
      00FA00H     PUBLIC    CONST     ---     ---   ?C_SYSSTKBOT
      000000H     GLOBAL    INTNO     ---     ---   RESET
      000000H     SYMBOL    RBANK     ---     ---   ?C_MAINREGISTERS
      050400H     SYMBOL    VAR       ---     ---   ?C_USERSTKTOP
      006007H     SYMBOL    CONST     ---     ---   ADDR2
      00FE1AH     SYMBOL    SFR       ---     ---   ADDRSEL2
      000000H     SYMBOL    CONST     ---     ---   BCON0H
      00002EH     SYMBOL    CONST     ---     ---   BCON0L
      00C4AEH     SYMBOL    CONST     ---     ---   BCON2
      00FF0CH     SYMBOL    SFR       ---     ---   BUSCON0
      00FF16H     SYMBOL    SFR       ---     ---   BUSCON2
      00E800H     SYMBOL    CONST     ---     ---   CANCLC
      00FE10H     SYMBOL    SFR       ---     ---   CP
      00FE00H     SYMBOL    SFR       ---     ---   DPP0
      00FE02H     SYMBOL    SFR       ---     ---   DPP1
      00FE04H     SYMBOL    SFR       ---     ---   DPP2
      00FE06H     SYMBOL    SFR       ---     ---   DPP3
      00FE14H     SYMBOL    SFR       ---     ---   STKOV
      00FF12H     SYMBOL    SFR       ---     ---   SYSCON
      00FFEFH     SYMBOL    CONST     ---     ---   SYS_BITS
      000004H     SYMBOL    CONST     ---     ---   SYS_H
      000004H     SYMBOL    CONST     ---     ---   SYS_L
      000400H     SYMBOL    CONST     ---     ---   USTSZ
      00F014H     SYMBOL    CONST     ---     ---   XADRS1
      00F114H     SYMBOL    CONST     ---     ---   XBCON1
      00F024H     SYMBOL    CONST     ---     ---   XPERCON
      000000H     SYMBOL    CONST     ---     ---   _ALECTL0
      000000H     SYMBOL    CONST     ---     ---   _ALECTL2
      000000H     SYMBOL    CONST     ---     ---   _BDRSTEN
      00FA00H     SYMBOL    CONST     ---     ---   _BOS
      000002H     SYMBOL    CONST     ---     ---   _BTYP2
L166 LINKER/LOCATER V5.25                                                             12/14/2017  11:31:13  PAGE 11


      000001H     SYMBOL    CONST     ---     ---   _BUSACT2
      000000H     SYMBOL    CONST     ---     ---   _BYTDIS
      000000H     SYMBOL    CONST     ---     ---   _CLKEN
      000000H     SYMBOL    CONST     ---     ---   _CSCFG
      000000H     SYMBOL    CONST     ---     ---   _CSREN0
      000001H     SYMBOL    CONST     ---     ---   _CSREN2
      000000H     SYMBOL    CONST     ---     ---   _CSWEN0
      000001H     SYMBOL    CONST     ---     ---   _CSWEN2
      000001H     SYMBOL    CONST     ---     ---   _MCTC0
      000001H     SYMBOL    CONST     ---     ---   _MCTC2
      000001H     SYMBOL    CONST     ---     ---   _MTTC0
      000001H     SYMBOL    CONST     ---     ---   _MTTC2
      000000H     SYMBOL    CONST     ---     ---   _PWDCFG
      000000H     SYMBOL    CONST     ---     ---   _RDYEN0
      000000H     SYMBOL    CONST     ---     ---   _RDYEN2
      000000H     SYMBOL    CONST     ---     ---   _RDY_AS0
      000000H     SYMBOL    CONST     ---     ---   _RDY_AS2
      000001H     SYMBOL    CONST     ---     ---   _ROMEN
      000000H     SYMBOL    CONST     ---     ---   _ROMS1
      000000H     SYMBOL    CONST     ---     ---   _RWDC0
      000000H     SYMBOL    CONST     ---     ---   _RWDC2
      000000H     SYMBOL    CONST     ---     ---   _SGTDIS
      000000H     SYMBOL    CONST     ---     ---   _STKSZ
      000001H     SYMBOL    CONST     ---     ---   _STKSZ1
      00FC00H     SYMBOL    CONST     ---     ---   _TOS
      000000H     SYMBOL    CONST     ---     ---   _VISIBLE
      000000H     SYMBOL    CONST     ---     ---   _WRCFG
      000001H     SYMBOL    CONST     ---     ---   _XPEN
      000000H     SYMBOL    CONST     ---     ---   _XPERSHARE

      0001A0H     BLOCK     LVL=0     0092H   ---   ?C_RESET
      0001A0H     LINE      ---       ---     ---   #623
      0001A4H     LINE      ---       ---     ---   #624
      0001A8H     LINE      ---       ---     ---   #625
      0001AAH     LINE      ---       ---     ---   #626
      0001AEH     LINE      ---       ---     ---   #627
      0001B0H     LINE      ---       ---     ---   #633
      0001B4H     LINE      ---       ---     ---   #669
      0001B8H     LINE      ---       ---     ---   #670
      0001BCH     LINE      ---       ---     ---   #672
      0001BEH     LINE      ---       ---     ---   #673
      0001C0H     LINE      ---       ---     ---   #674
      0001C4H     LINE      ---       ---     ---   #676
      0001C8H     LINE      ---       ---     ---   #677
      0001CAH     LINE      ---       ---     ---   #678
      0001CEH     LINE      ---       ---     ---   #680
      0001D2H     LINE      ---       ---     ---   #681
      0001D4H     LINE      ---       ---     ---   #682
      0001D8H     LINE      ---       ---     ---   #684
      0001DAH     LINE      ---       ---     ---   #685
      0001DCH     LINE      ---       ---     ---   #691
      0001DEH     LINE      ---       ---     ---   #692
      0001E0H     LINE      ---       ---     ---   #693
      0001E4H     LINE      ---       ---     ---   #694
      0001E6H     LINE      ---       ---     ---   #695
      0001E8H     LINE      ---       ---     ---   #696
      0001ECH     LINE      ---       ---     ---   #697
L166 LINKER/LOCATER V5.25                                                             12/14/2017  11:31:13  PAGE 12


      0001EEH     LINE      ---       ---     ---   #698
      0001F2H     LINE      ---       ---     ---   #699
      0001F4H     LINE      ---       ---     ---   #700
      0001F8H     LINE      ---       ---     ---   #701
      0001FAH     LINE      ---       ---     ---   #702
      0001FEH     LINE      ---       ---     ---   #703
      000200H     LINE      ---       ---     ---   #704
      000202H     LINE      ---       ---     ---   #779
      000206H     LINE      ---       ---     ---   #780
      00020AH     LINE      ---       ---     ---   #818
      00020EH     LINE      ---       ---     ---   #828
      000212H     LINE      ---       ---     ---   #830
      000216H     LINE      ---       ---     ---   #831
      00021AH     LINE      ---       ---     ---   #835
      00021EH     LINE      ---       ---     ---   #836
      000222H     LINE      ---       ---     ---   #839
      000226H     LINE      ---       ---     ---   #840
      000228H     LINE      ---       ---     ---   #841
      00022AH     LINE      ---       ---     ---   #844
      00022EH     LINE      ---       ---     ---   #1093
      0001AEH     SYMBOL    LABEL     ---     ---   RUN_MAIN
      ---         BLOCKEND  LVL=0     ---     ---   
      00FF98H     SYMBOL    SFR       ---     ---   ADCIC
      00FFA0H     SYMBOL    SFR       ---     ---   ADCON
      00FF9AH     SYMBOL    SFR       ---     ---   ADEIC
      000101H     SYMBOL    CONST     ---     ---   BSLVER
      00FF0CH     SYMBOL    SFR       ---     ---   BUSCON0
      00FF14H     SYMBOL    SFR       ---     ---   BUSCON1
      00FF16H     SYMBOL    SFR       ---     ---   BUSCON2
      00FF18H     SYMBOL    SFR       ---     ---   BUSCON3
      00FF1AH     SYMBOL    SFR       ---     ---   BUSCON4
      00FF10H.1   SYMBOL    SBIT      ---     ---   C
      00FF78H     SYMBOL    SFR       ---     ---   CC0IC
      00FF8CH     SYMBOL    SFR       ---     ---   CC10IC
      00FF8EH     SYMBOL    SFR       ---     ---   CC11IC
      00FF90H     SYMBOL    SFR       ---     ---   CC12IC
      00FF92H     SYMBOL    SFR       ---     ---   CC13IC
      00FF94H     SYMBOL    SFR       ---     ---   CC14IC
      00FF96H     SYMBOL    SFR       ---     ---   CC15IC
      00F160H     SYMBOL    ESFR      ---     ---   CC16IC
      00F162H     SYMBOL    ESFR      ---     ---   CC17IC
      00F164H     SYMBOL    ESFR      ---     ---   CC18IC
      00F166H     SYMBOL    ESFR      ---     ---   CC19IC
      00FF7AH     SYMBOL    SFR       ---     ---   CC1IC
      00F168H     SYMBOL    ESFR      ---     ---   CC20IC
      00F16AH     SYMBOL    ESFR      ---     ---   CC21IC
      00F16CH     SYMBOL    ESFR      ---     ---   CC22IC
      00F16EH     SYMBOL    ESFR      ---     ---   CC23IC
      00F170H     SYMBOL    ESFR      ---     ---   CC24IC
      00F172H     SYMBOL    ESFR      ---     ---   CC25IC
      00F174H     SYMBOL    ESFR      ---     ---   CC26IC
      00F176H     SYMBOL    ESFR      ---     ---   CC27IC
      00F178H     SYMBOL    ESFR      ---     ---   CC28IC
      00F184H     SYMBOL    ESFR      ---     ---   CC29IC
      00FF7CH     SYMBOL    SFR       ---     ---   CC2IC
      00FE7CH     SYMBOL    SFR       ---     ---   CC30
      00F18CH     SYMBOL    ESFR      ---     ---   CC30IC
L166 LINKER/LOCATER V5.25                                                             12/14/2017  11:31:13  PAGE 13


      00FE7EH     SYMBOL    SFR       ---     ---   CC31
      00F194H     SYMBOL    ESFR      ---     ---   CC31IC
      00FF7EH     SYMBOL    SFR       ---     ---   CC3IC
      00FF80H     SYMBOL    SFR       ---     ---   CC4IC
      00FF82H     SYMBOL    SFR       ---     ---   CC5IC
      00FF84H     SYMBOL    SFR       ---     ---   CC6IC
      00FF86H     SYMBOL    SFR       ---     ---   CC7IC
      00FF88H     SYMBOL    SFR       ---     ---   CC8IC
      00FF8AH     SYMBOL    SFR       ---     ---   CC9IC
      00FF52H     SYMBOL    SFR       ---     ---   CCM0
      00FF54H     SYMBOL    SFR       ---     ---   CCM1
      00FF56H     SYMBOL    SFR       ---     ---   CCM2
      00FF58H     SYMBOL    SFR       ---     ---   CCM3
      00FF22H     SYMBOL    SFR       ---     ---   CCM4
      00FF24H     SYMBOL    SFR       ---     ---   CCM5
      00FF26H     SYMBOL    SFR       ---     ---   CCM6
      00FF28H     SYMBOL    SFR       ---     ---   CCM7
      00FF6AH     SYMBOL    SFR       ---     ---   CRIC
      00FE02H     SYMBOL    SFR       ---     ---   DPP1
      00FE04H     SYMBOL    SFR       ---     ---   DPP2
      00FE06H     SYMBOL    SFR       ---     ---   DPP3
      00FF10H.4   SYMBOL    SBIT      ---     ---   E
      00FF11H.2   SYMBOL    SBIT      ---     ---   HLDEN
      00FF11H.3   SYMBOL    SBIT      ---     ---   IEN
      00F1DEH     SYMBOL    ESFR      ---     ---   ISNC
      00FF0EH     SYMBOL    SFR       ---     ---   MDC
      00FF0EH.4   SYMBOL    SBIT      ---     ---   MDRIU
      00FF10H.5   SYMBOL    SBIT      ---     ---   MULIP
      00FF10H     SYMBOL    SBIT      ---     ---   N
      00FF1EH     SYMBOL    SFR       ---     ---   ONES
      00FFC4H     SYMBOL    SFR       ---     ---   P3
      00FFA2H     SYMBOL    SFR       ---     ---   P5
      00FEC0H     SYMBOL    SFR       ---     ---   PECC0
      00FEC2H     SYMBOL    SFR       ---     ---   PECC1
      00FEC4H     SYMBOL    SFR       ---     ---   PECC2
      00FEC6H     SYMBOL    SFR       ---     ---   PECC3
      00FEC8H     SYMBOL    SFR       ---     ---   PECC4
      00FECAH     SYMBOL    SFR       ---     ---   PECC5
      00FECCH     SYMBOL    SFR       ---     ---   PECC6
      00FECEH     SYMBOL    SFR       ---     ---   PECC7
      00FF10H     SYMBOL    SFR       ---     ---   PSW
      00FF30H     SYMBOL    SFR       ---     ---   PWMCON0
      00FF32H     SYMBOL    SFR       ---     ---   PWMCON1
      00F17EH     SYMBOL    ESFR      ---     ---   PWMIC
      00FFB0H     SYMBOL    SFR       ---     ---   S0CON
      00FF70H     SYMBOL    SFR       ---     ---   S0EIC
      00FF6EH     SYMBOL    SFR       ---     ---   S0RIC
      00F19CH     SYMBOL    ESFR      ---     ---   S0TBIC
      00FF6CH     SYMBOL    SFR       ---     ---   S0TIC
      00FFB2H     SYMBOL    SFR       ---     ---   SSCCON
      00FF76H     SYMBOL    SFR       ---     ---   SSCEIC
      00FF74H     SYMBOL    SFR       ---     ---   SSCRIC
      00FF72H     SYMBOL    SFR       ---     ---   SSCTIC
      00FF12H     SYMBOL    SFR       ---     ---   SYSCON
      00F1D0H     SYMBOL    ESFR      ---     ---   SYSCON2
      00F1D4H     SYMBOL    ESFR      ---     ---   SYSCON3
      00FF50H     SYMBOL    SFR       ---     ---   T01CON
L166 LINKER/LOCATER V5.25                                                             12/14/2017  11:31:13  PAGE 14


      00FF9CH     SYMBOL    SFR       ---     ---   T0IC
      00FF9EH     SYMBOL    SFR       ---     ---   T1IC
      00FF40H     SYMBOL    SFR       ---     ---   T2CON
      00FF60H     SYMBOL    SFR       ---     ---   T2IC
      00FF42H     SYMBOL    SFR       ---     ---   T3CON
      00FFC4H.4   SYMBOL    SBIT      ---     ---   T3EUD
      00FF62H     SYMBOL    SFR       ---     ---   T3IC
      00FF44H     SYMBOL    SFR       ---     ---   T4CON
      00FF64H     SYMBOL    SFR       ---     ---   T4IC
      00FF46H     SYMBOL    SFR       ---     ---   T5CON
      00FF66H     SYMBOL    SFR       ---     ---   T5IC
      00FF48H     SYMBOL    SFR       ---     ---   T6CON
      00FF68H     SYMBOL    SFR       ---     ---   T6IC
      00FF20H     SYMBOL    SFR       ---     ---   T78CON
      00F17AH     SYMBOL    ESFR      ---     ---   T7IC
      00F17CH     SYMBOL    ESFR      ---     ---   T8IC
      00FFACH     SYMBOL    SFR       ---     ---   TFR
      00FF10H.6   SYMBOL    SBIT      ---     ---   USR0
      00FF10H.2   SYMBOL    SBIT      ---     ---   V
      00FFAEH     SYMBOL    SFR       ---     ---   WDTCON
      00FF6CH     SYMBOL    SFR       ---     ---   XC2XXXT7IC
      00FF6EH     SYMBOL    SFR       ---     ---   XC2XXXT8IC
      00F186H     SYMBOL    ESFR      ---     ---   XP0IC
      00F18EH     SYMBOL    ESFR      ---     ---   XP1IC
      00F196H     SYMBOL    ESFR      ---     ---   XP2IC
      00F19EH     SYMBOL    ESFR      ---     ---   XP3IC
      00FF10H.3   SYMBOL    SBIT      ---     ---   Z
      00FF1CH     SYMBOL    SFR       ---     ---   ZEROS

      04F000H     BLOCK     LVL=0     00CAH   ---   CANINTERRUPT
      04F000H     LINE      ---       ---     ---   #37
      04F004H     LINE      ---       ---     ---   #38
      04F008H     LINE      ---       ---     ---   #39
      04F00AH     LINE      ---       ---     ---   #41
      04F00EH     LINE      ---       ---     ---   #42
      04F012H     LINE      ---       ---     ---   #43
      04F016H     LINE      ---       ---     ---   #44
      04F01AH     LINE      ---       ---     ---   #46
      04F01EH     LINE      ---       ---     ---   #47
      04F020H     LINE      ---       ---     ---   #50
      04F024H     LINE      ---       ---     ---   #51
      04F026H     LINE      ---       ---     ---   #52
      04F02AH     LINE      ---       ---     ---   #54
      04F02CH     LINE      ---       ---     ---   #56
      04F030H     LINE      ---       ---     ---   #57
      04F032H     LINE      ---       ---     ---   #58
      04F036H     LINE      ---       ---     ---   #59
      04F03AH     LINE      ---       ---     ---   #61
      04F03CH     LINE      ---       ---     ---   #63
      04F03EH     LINE      ---       ---     ---   #64
      04F040H     LINE      ---       ---     ---   #65
      04F044H     LINE      ---       ---     ---   #66
      04F048H     LINE      ---       ---     ---   #68
      04F04CH     LINE      ---       ---     ---   #69
      04F050H     LINE      ---       ---     ---   #70
      04F054H     LINE      ---       ---     ---   #71
      04F058H     LINE      ---       ---     ---   #72
L166 LINKER/LOCATER V5.25                                                             12/14/2017  11:31:13  PAGE 15


      04F05CH     LINE      ---       ---     ---   #73
      04F05EH     LINE      ---       ---     ---   #75
      04F062H     LINE      ---       ---     ---   #76
      04F064H     LINE      ---       ---     ---   #77
      04F068H     LINE      ---       ---     ---   #78
      04F06CH     LINE      ---       ---     ---   #79
      04F06EH     LINE      ---       ---     ---   #80
      04F072H     LINE      ---       ---     ---   #83
      04F076H     LINE      ---       ---     ---   #84
      04F07AH     LINE      ---       ---     ---   #87
      04F07EH     LINE      ---       ---     ---   #88
      04F080H     LINE      ---       ---     ---   #89
      04F084H     LINE      ---       ---     ---   #91
      04F086H     LINE      ---       ---     ---   #92
      04F088H     LINE      ---       ---     ---   #93
      04F08CH     LINE      ---       ---     ---   #98
      04F090H     LINE      ---       ---     ---   #99
      04F094H     LINE      ---       ---     ---   #100
      04F098H     LINE      ---       ---     ---   #101
      04F09CH     LINE      ---       ---     ---   #102
      04F0A0H     LINE      ---       ---     ---   #103
      04F0A2H     LINE      ---       ---     ---   #105
      04F0A6H     LINE      ---       ---     ---   #106
      04F0A8H     LINE      ---       ---     ---   #107
      04F0ACH     LINE      ---       ---     ---   #108
      04F0B0H     LINE      ---       ---     ---   #109
      04F0B4H     LINE      ---       ---     ---   #110
      04F0B8H     LINE      ---       ---     ---   #111
      04F0BCH     LINE      ---       ---     ---   #113
      04F0C0H     LINE      ---       ---     ---   #114
      04F0C2H     LINE      ---       ---     ---   #115
      04F0C6H     LINE      ---       ---     ---   #118
      04F0C8H     LINE      ---       ---     ---   #121
      04F0C8H     SYMBOL    LABEL     ---     ---   EXIT
      04F0BCH     SYMBOL    LABEL     ---     ---   CMD5
      04F0A2H     SYMBOL    LABEL     ---     ---   CMD4
      04F05EH     SYMBOL    LABEL     ---     ---   CMD3
      04F02CH     SYMBOL    LABEL     ---     ---   CMD2
      04F020H     SYMBOL    LABEL     ---     ---   CMD1
      ---         BLOCKEND  LVL=0     ---     ---   

      04E000H     BLOCK     LVL=0     017AH   ---   LOADER
      04E000H     LINE      ---       ---     ---   #129
      04E004H     LINE      ---       ---     ---   #130
      04E008H     LINE      ---       ---     ---   #132
      04E00AH     LINE      ---       ---     ---   #133
      04E00EH     LINE      ---       ---     ---   #134
      04E012H     LINE      ---       ---     ---   #135
      04E016H     LINE      ---       ---     ---   #136
      04E01AH     LINE      ---       ---     ---   #137
      04E01EH     LINE      ---       ---     ---   #138
      04E022H     LINE      ---       ---     ---   #139
      04E026H     LINE      ---       ---     ---   #140
      04E02AH     LINE      ---       ---     ---   #141
      04E02EH     LINE      ---       ---     ---   #142
      04E032H     LINE      ---       ---     ---   #143
      04E036H     LINE      ---       ---     ---   #144
L166 LINKER/LOCATER V5.25                                                             12/14/2017  11:31:13  PAGE 16


      04E03AH     LINE      ---       ---     ---   #145
      04E03EH     LINE      ---       ---     ---   #146
      04E042H     LINE      ---       ---     ---   #147
      04E046H     LINE      ---       ---     ---   #149
      04E04AH     LINE      ---       ---     ---   #150
      04E04EH     LINE      ---       ---     ---   #151
      04E052H     LINE      ---       ---     ---   #152
      04E056H     LINE      ---       ---     ---   #153
      04E05AH     LINE      ---       ---     ---   #154
      04E05EH     LINE      ---       ---     ---   #155
      04E062H     LINE      ---       ---     ---   #156
      04E066H     LINE      ---       ---     ---   #157
      04E06AH     LINE      ---       ---     ---   #160
      04E06EH     LINE      ---       ---     ---   #161
      04E072H     LINE      ---       ---     ---   #162
      04E074H     LINE      ---       ---     ---   #163
      04E078H     LINE      ---       ---     ---   #164
      04E07CH     LINE      ---       ---     ---   #165
      04E080H     LINE      ---       ---     ---   #166
      04E082H     LINE      ---       ---     ---   #167
      04E084H     LINE      ---       ---     ---   #168
      04E086H     LINE      ---       ---     ---   #169
      04E088H     LINE      ---       ---     ---   #170
      04E08AH     LINE      ---       ---     ---   #171
      04E08CH     LINE      ---       ---     ---   #172
      04E090H     LINE      ---       ---     ---   #173
      04E094H     LINE      ---       ---     ---   #174
      04E096H     LINE      ---       ---     ---   #175
      04E09AH     LINE      ---       ---     ---   #176
      04E09CH     LINE      ---       ---     ---   #177
      04E0A0H     LINE      ---       ---     ---   #178
      04E0A4H     LINE      ---       ---     ---   #179
      04E0A8H     LINE      ---       ---     ---   #180
      04E0AAH     LINE      ---       ---     ---   #181
      04E0ACH     LINE      ---       ---     ---   #182
      04E0AEH     LINE      ---       ---     ---   #183
      04E0B0H     LINE      ---       ---     ---   #184
      04E0B2H     LINE      ---       ---     ---   #185
      04E0B4H     LINE      ---       ---     ---   #186
      04E0B8H     LINE      ---       ---     ---   #187
      04E0BCH     LINE      ---       ---     ---   #188
      04E0C0H     LINE      ---       ---     ---   #189
      04E0C4H     LINE      ---       ---     ---   #190
      04E0C8H     LINE      ---       ---     ---   #191
      04E0CCH     LINE      ---       ---     ---   #192
      04E0D0H     LINE      ---       ---     ---   #193
      04E0D4H     LINE      ---       ---     ---   #197
      04E0D6H     LINE      ---       ---     ---   #198
      04E0D8H     LINE      ---       ---     ---   #199
      04E0DAH     LINE      ---       ---     ---   #200
      04E0DCH     LINE      ---       ---     ---   #201
      04E0DEH     LINE      ---       ---     ---   #202
      04E0E0H     LINE      ---       ---     ---   #203
      04E0E2H     LINE      ---       ---     ---   #204
      04E0E4H     LINE      ---       ---     ---   #205
      04E0E6H     LINE      ---       ---     ---   #206
      04E0E8H     LINE      ---       ---     ---   #207
L166 LINKER/LOCATER V5.25                                                             12/14/2017  11:31:13  PAGE 17


      04E0EAH     LINE      ---       ---     ---   #208
      04E0ECH     LINE      ---       ---     ---   #209
      04E0EEH     LINE      ---       ---     ---   #210
      04E0F0H     LINE      ---       ---     ---   #211
      04E0F2H     LINE      ---       ---     ---   #212
      04E0F4H     LINE      ---       ---     ---   #213
      04E0F6H     LINE      ---       ---     ---   #214
      04E0F8H     LINE      ---       ---     ---   #215
      04E0FAH     LINE      ---       ---     ---   #216
      04E0FCH     LINE      ---       ---     ---   #217
      04E0FEH     LINE      ---       ---     ---   #218
      04E100H     LINE      ---       ---     ---   #219
      04E102H     LINE      ---       ---     ---   #220
      04E104H     LINE      ---       ---     ---   #221
      04E108H     LINE      ---       ---     ---   #222
      04E10CH     LINE      ---       ---     ---   #223
      04E10EH     LINE      ---       ---     ---   #224
      04E110H     LINE      ---       ---     ---   #225
      04E114H     LINE      ---       ---     ---   #226
      04E118H     LINE      ---       ---     ---   #227
      04E11AH     LINE      ---       ---     ---   #228
      04E11CH     LINE      ---       ---     ---   #229
      04E11EH     LINE      ---       ---     ---   #230
      04E120H     LINE      ---       ---     ---   #231
      04E122H     LINE      ---       ---     ---   #232
      04E124H     LINE      ---       ---     ---   #233
      04E128H     LINE      ---       ---     ---   #234
      04E12CH     LINE      ---       ---     ---   #235
      04E12EH     LINE      ---       ---     ---   #236
      04E130H     LINE      ---       ---     ---   #237
      04E134H     LINE      ---       ---     ---   #238
      04E138H     LINE      ---       ---     ---   #239
      04E13AH     LINE      ---       ---     ---   #240
      04E13CH     LINE      ---       ---     ---   #241
      04E13EH     LINE      ---       ---     ---   #242
      04E140H     LINE      ---       ---     ---   #243
      04E142H     LINE      ---       ---     ---   #244
      04E144H     LINE      ---       ---     ---   #245
      04E148H     LINE      ---       ---     ---   #246
      04E14CH     LINE      ---       ---     ---   #247
      04E14EH     LINE      ---       ---     ---   #248
      04E152H     LINE      ---       ---     ---   #249
      04E156H     LINE      ---       ---     ---   #250
      04E15AH     LINE      ---       ---     ---   #251
      04E15CH     LINE      ---       ---     ---   #252
      04E160H     LINE      ---       ---     ---   #256
      04E162H     LINE      ---       ---     ---   #258
      04E166H     LINE      ---       ---     ---   #259
      04E16AH     LINE      ---       ---     ---   #260
      04E16EH     LINE      ---       ---     ---   #261
      04E172H     LINE      ---       ---     ---   #262
      04E176H     LINE      ---       ---     ---   #266
      04E178H     LINE      ---       ---     ---   #268
      04E176H     SYMBOL    LABEL     ---     ---   L1
      ---         BLOCKEND  LVL=0     ---     ---   

      04E17AH     BLOCK     LVL=0     004CH   ---   START
L166 LINKER/LOCATER V5.25                                                             12/14/2017  11:31:13  PAGE 18


      04E17AH     LINE      ---       ---     ---   #275
      04E17EH     LINE      ---       ---     ---   #276
      04E182H     LINE      ---       ---     ---   #279
      04E184H     LINE      ---       ---     ---   #280
      04E186H     LINE      ---       ---     ---   #282
      04E18AH     LINE      ---       ---     ---   #283
      04E18EH     LINE      ---       ---     ---   #288
      04E192H     LINE      ---       ---     ---   #289
      04E194H     LINE      ---       ---     ---   #290
      04E198H     LINE      ---       ---     ---   #292
      04E19CH     LINE      ---       ---     ---   #293
      04E1A0H     LINE      ---       ---     ---   #295
      04E1A4H     LINE      ---       ---     ---   #296
      04E1A8H     LINE      ---       ---     ---   #298
      04E1ACH     LINE      ---       ---     ---   #299
      04E1B0H     LINE      ---       ---     ---   #301
      04E1B4H     LINE      ---       ---     ---   #302
      04E1B8H     LINE      ---       ---     ---   #303
      04E1BCH     LINE      ---       ---     ---   #304
      04E1C0H     LINE      ---       ---     ---   #306
      04E1C4H     LINE      ---       ---     ---   #308
      ---         BLOCKEND  LVL=0     ---     ---   

      04E1C6H     BLOCK     LVL=0     0020H   ---   SENDMESSSAGE
      04E1C6H     LINE      ---       ---     ---   #317
      04E1CAH     LINE      ---       ---     ---   #318
      04E1CCH     LINE      ---       ---     ---   #319
      04E1D0H     LINE      ---       ---     ---   #320
      04E1D2H     LINE      ---       ---     ---   #321
      04E1D6H     LINE      ---       ---     ---   #322
      04E1D8H     LINE      ---       ---     ---   #323
      04E1DCH     LINE      ---       ---     ---   #326
      04E1E0H     LINE      ---       ---     ---   #327
      04E1E4H     LINE      ---       ---     ---   #331
      ---         BLOCKEND  LVL=0     ---     ---   

      04E1E6H     BLOCK     LVL=0     00CEH   ---   ERASEBLOCK
      04E1E6H     LINE      ---       ---     ---   #337
      04E1EAH     LINE      ---       ---     ---   #338
      04E1EEH     LINE      ---       ---     ---   #339
      04E1F0H     LINE      ---       ---     ---   #340
      04E1F2H     LINE      ---       ---     ---   #342
      04E1F6H     LINE      ---       ---     ---   #343
      04E1F8H     LINE      ---       ---     ---   #344
      04E1FAH     LINE      ---       ---     ---   #346
      04E1FCH     LINE      ---       ---     ---   #347
      04E1FEH     LINE      ---       ---     ---   #348
      04E200H     LINE      ---       ---     ---   #349
      04E202H     LINE      ---       ---     ---   #350
      04E204H     LINE      ---       ---     ---   #351
      04E206H     LINE      ---       ---     ---   #352
      04E208H     LINE      ---       ---     ---   #354
      04E20CH     LINE      ---       ---     ---   #355
      04E210H     LINE      ---       ---     ---   #356
      04E212H     LINE      ---       ---     ---   #358
      04E214H     LINE      ---       ---     ---   #359
      04E216H     LINE      ---       ---     ---   #360
L166 LINKER/LOCATER V5.25                                                             12/14/2017  11:31:13  PAGE 19


      04E218H     LINE      ---       ---     ---   #361
      04E21AH     LINE      ---       ---     ---   #364
      04E21CH     LINE      ---       ---     ---   #365
      04E21EH     LINE      ---       ---     ---   #366
      04E220H     LINE      ---       ---     ---   #367
      04E222H     LINE      ---       ---     ---   #369
      04E226H     LINE      ---       ---     ---   #370
      04E228H     LINE      ---       ---     ---   #371
      04E22AH     LINE      ---       ---     ---   #373
      04E22CH     LINE      ---       ---     ---   #374
      04E22EH     LINE      ---       ---     ---   #375
      04E230H     LINE      ---       ---     ---   #376
      04E232H     LINE      ---       ---     ---   #379
      04E234H     LINE      ---       ---     ---   #380
      04E236H     LINE      ---       ---     ---   #381
      04E238H     LINE      ---       ---     ---   #382
      04E23AH     LINE      ---       ---     ---   #384
      04E23EH     LINE      ---       ---     ---   #385
      04E240H     LINE      ---       ---     ---   #386
      04E242H     LINE      ---       ---     ---   #388
      04E244H     LINE      ---       ---     ---   #389
      04E246H     LINE      ---       ---     ---   #390
      04E248H     LINE      ---       ---     ---   #391
      04E24AH     LINE      ---       ---     ---   #394
      04E24CH     LINE      ---       ---     ---   #395
      04E24EH     LINE      ---       ---     ---   #396
      04E250H     LINE      ---       ---     ---   #397
      04E252H     LINE      ---       ---     ---   #399
      04E256H     LINE      ---       ---     ---   #400
      04E258H     LINE      ---       ---     ---   #401
      04E25AH     LINE      ---       ---     ---   #403
      04E25CH     LINE      ---       ---     ---   #404
      04E25EH     LINE      ---       ---     ---   #405
      04E260H     LINE      ---       ---     ---   #406
      04E262H     LINE      ---       ---     ---   #408
      04E264H     LINE      ---       ---     ---   #409
      04E266H     LINE      ---       ---     ---   #410
      04E268H     LINE      ---       ---     ---   #411
      04E26AH     LINE      ---       ---     ---   #413
      04E26EH     LINE      ---       ---     ---   #414
      04E270H     LINE      ---       ---     ---   #415
      04E272H     LINE      ---       ---     ---   #417
      04E274H     LINE      ---       ---     ---   #418
      04E276H     LINE      ---       ---     ---   #419
      04E278H     LINE      ---       ---     ---   #420
      04E27AH     LINE      ---       ---     ---   #422
      04E27CH     LINE      ---       ---     ---   #423
      04E27EH     LINE      ---       ---     ---   #424
      04E280H     LINE      ---       ---     ---   #425
      04E282H     LINE      ---       ---     ---   #427
      04E286H     LINE      ---       ---     ---   #428
      04E288H     LINE      ---       ---     ---   #429
      04E28AH     LINE      ---       ---     ---   #431
      04E28CH     LINE      ---       ---     ---   #432
      04E28EH     LINE      ---       ---     ---   #433
      04E290H     LINE      ---       ---     ---   #434
      04E292H     LINE      ---       ---     ---   #436
L166 LINKER/LOCATER V5.25                                                             12/14/2017  11:31:13  PAGE 20


      04E294H     LINE      ---       ---     ---   #437
      04E296H     LINE      ---       ---     ---   #438
      04E298H     LINE      ---       ---     ---   #439
      04E29AH     LINE      ---       ---     ---   #441
      04E29CH     LINE      ---       ---     ---   #442
      04E29EH     LINE      ---       ---     ---   #443
      04E2A0H     LINE      ---       ---     ---   #444
      04E2A2H     LINE      ---       ---     ---   #446
      04E2A4H     LINE      ---       ---     ---   #447
      04E2A6H     LINE      ---       ---     ---   #448
      04E2A8H     LINE      ---       ---     ---   #449
      04E2AAH     LINE      ---       ---     ---   #451
      04E2ACH     LINE      ---       ---     ---   #452
      04E2AEH     LINE      ---       ---     ---   #453
      04E2B0H     LINE      ---       ---     ---   #454
      04E2B2H     LINE      ---       ---     ---   #456
      ---         BLOCKEND  LVL=0     ---     ---   

      04E2B4H     BLOCK     LVL=0     0026H   ---   FSRCONTROL
      04E2B4H     LINE      ---       ---     ---   #460
      04E2B6H     LINE      ---       ---     ---   #461
      04E2BAH     LINE      ---       ---     ---   #462
      04E2BEH     LINE      ---       ---     ---   #463
      04E2C0H     LINE      ---       ---     ---   #464
      04E2C2H     LINE      ---       ---     ---   #465
      04E2C4H     LINE      ---       ---     ---   #466
      04E2C6H     LINE      ---       ---     ---   #467
      04E2C8H     LINE      ---       ---     ---   #468
      04E2CAH     LINE      ---       ---     ---   #470
      04E2CCH     LINE      ---       ---     ---   #471
      04E2CEH     LINE      ---       ---     ---   #472
      04E2D0H     LINE      ---       ---     ---   #474
      04E2D2H     LINE      ---       ---     ---   #475
      04E2D6H     LINE      ---       ---     ---   #476
      04E2D8H     LINE      ---       ---     ---   #477
      04E2D0H     SYMBOL    LABEL     ---     ---   FSRL1
      04E2CAH     SYMBOL    LABEL     ---     ---   FSRL2
      ---         BLOCKEND  LVL=0     ---     ---   

      04E2DAH     BLOCK     LVL=0     008AH   ---   WRITEWORD
      04E2DAH     LINE      ---       ---     ---   #484
      04E2DCH     LINE      ---       ---     ---   #485
      04E2E0H     LINE      ---       ---     ---   #486
      04E2E4H     LINE      ---       ---     ---   #487
      04E2E6H     LINE      ---       ---     ---   #488
      04E2E8H     LINE      ---       ---     ---   #489
      04E2ECH     LINE      ---       ---     ---   #490
      04E2EEH     LINE      ---       ---     ---   #491
      04E2F0H     LINE      ---       ---     ---   #492
      04E2F2H     LINE      ---       ---     ---   #493
      04E2F4H     LINE      ---       ---     ---   #494
      04E2F6H     LINE      ---       ---     ---   #495
      04E2F8H     LINE      ---       ---     ---   #496
      04E2FAH     LINE      ---       ---     ---   #497
      04E2FCH     LINE      ---       ---     ---   #498
      04E2FEH     LINE      ---       ---     ---   #499
      04E300H     LINE      ---       ---     ---   #500
L166 LINKER/LOCATER V5.25                                                             12/14/2017  11:31:13  PAGE 21


      04E302H     LINE      ---       ---     ---   #501
      04E306H     LINE      ---       ---     ---   #502
      04E30AH     LINE      ---       ---     ---   #503
      04E30CH     LINE      ---       ---     ---   #504
      04E30EH     LINE      ---       ---     ---   #505
      04E310H     LINE      ---       ---     ---   #506
      04E312H     LINE      ---       ---     ---   #507
      04E314H     LINE      ---       ---     ---   #508
      04E318H     LINE      ---       ---     ---   #509
      04E31AH     LINE      ---       ---     ---   #510
      04E31CH     LINE      ---       ---     ---   #511
      04E31EH     LINE      ---       ---     ---   #512
      04E320H     LINE      ---       ---     ---   #513
      04E322H     LINE      ---       ---     ---   #514
      04E324H     LINE      ---       ---     ---   #515
      04E328H     LINE      ---       ---     ---   #516
      04E32AH     LINE      ---       ---     ---   #517
      04E32CH     LINE      ---       ---     ---   #518
      04E32EH     LINE      ---       ---     ---   #519
      04E330H     LINE      ---       ---     ---   #520
      04E332H     LINE      ---       ---     ---   #521
      04E334H     LINE      ---       ---     ---   #522
      04E336H     LINE      ---       ---     ---   #523
      04E338H     LINE      ---       ---     ---   #524
      04E33AH     LINE      ---       ---     ---   #525
      04E33CH     LINE      ---       ---     ---   #526
      04E33EH     LINE      ---       ---     ---   #527
      04E340H     LINE      ---       ---     ---   #528
      04E342H     LINE      ---       ---     ---   #529
      04E344H     LINE      ---       ---     ---   #530
      04E346H     LINE      ---       ---     ---   #531
      04E348H     LINE      ---       ---     ---   #532
      04E34AH     LINE      ---       ---     ---   #533
      04E34CH     LINE      ---       ---     ---   #534
      04E34EH     LINE      ---       ---     ---   #535
      04E350H     LINE      ---       ---     ---   #536
      04E352H     LINE      ---       ---     ---   #537
      04E354H     LINE      ---       ---     ---   #538
      04E356H     LINE      ---       ---     ---   #539
      04E358H     LINE      ---       ---     ---   #540
      04E35AH     LINE      ---       ---     ---   #541
      04E35CH     LINE      ---       ---     ---   #542
      04E35EH     LINE      ---       ---     ---   #543
      04E360H     LINE      ---       ---     ---   #544
      04E362H     LINE      ---       ---     ---   #545
      ---         BLOCKEND  LVL=0     ---     ---   
      02C5FEH     GLOBAL    LABEL     ---     ---   main
      004062H     PUBLIC    VAR       ---     ---   SerialNumberBD
      05052FH     PUBLIC    VAR       ---     ---   ramTestOK
      621998H     PUBLIC    VAR       ---     ---   malloc_mempool

      02C5FEH     BLOCK     LVL=0     00F2H   ---   main
      02C5FEH     BLOCK     LVL=1     00F2H   ---   
      00000EH     SYMBOL    REG       ---     ---   pReprogWord
      ---         BLOCKEND  LVL=1     ---     ---   
      02C5FEH     LINE      ---       ---     ---   #22
      02C5FEH     LINE      ---       ---     ---   #23
L166 LINKER/LOCATER V5.25                                                             12/14/2017  11:31:13  PAGE 22


      02C5FEH     LINE      ---       ---     ---   #26
      02C608H     LINE      ---       ---     ---   #31
      02C60AH     LINE      ---       ---     ---   #32
      02C60CH     LINE      ---       ---     ---   #36
      02C610H     LINE      ---       ---     ---   #38
      02C614H     LINE      ---       ---     ---   #40
      02C61EH     LINE      ---       ---     ---   #42
      02C624H     LINE      ---       ---     ---   #44
      02C628H     LINE      ---       ---     ---   #45
      02C628H     LINE      ---       ---     ---   #50
      02C630H     LINE      ---       ---     ---   #51
      02C634H     LINE      ---       ---     ---   #55
      02C638H     LINE      ---       ---     ---   #56
      02C63CH     LINE      ---       ---     ---   #58
      02C640H     LINE      ---       ---     ---   #60
      02C644H     LINE      ---       ---     ---   #61
      02C648H     LINE      ---       ---     ---   #63
      02C64CH     LINE      ---       ---     ---   #64
      02C650H     LINE      ---       ---     ---   #66
      02C654H     LINE      ---       ---     ---   #67
      02C658H     LINE      ---       ---     ---   #69
      02C65AH     LINE      ---       ---     ---   #70
      02C65CH     LINE      ---       ---     ---   #72
      02C662H     LINE      ---       ---     ---   #75
      02C66CH     LINE      ---       ---     ---   #77
      02C670H     LINE      ---       ---     ---   #82
      02C680H     LINE      ---       ---     ---   #85
      02C690H     LINE      ---       ---     ---   #87
      02C694H     LINE      ---       ---     ---   #88
      02C698H     LINE      ---       ---     ---   #90
      02C69CH     LINE      ---       ---     ---   #91
      02C6A2H     LINE      ---       ---     ---   #92
      02C6A8H     LINE      ---       ---     ---   #93
      02C6AEH     LINE      ---       ---     ---   #94
      02C6B4H     LINE      ---       ---     ---   #96
      02C6B8H     LINE      ---       ---     ---   #98
      02C6BCH     LINE      ---       ---     ---   #99
      02C6BEH     LINE      ---       ---     ---   #103
      02C6C2H     LINE      ---       ---     ---   #104
      02C6D0H     LINE      ---       ---     ---   #106
      02C6D6H     LINE      ---       ---     ---   #107
      02C6D8H     LINE      ---       ---     ---   #109
      02C6DEH     LINE      ---       ---     ---   #113
      02C6DEH     LINE      ---       ---     ---   #116
      02C6E2H     LINE      ---       ---     ---   #117
      02C6E6H     LINE      ---       ---     ---   #118
      02C6EAH     LINE      ---       ---     ---   #119
      02C6EEH     LINE      ---       ---     ---   #120
      ---         BLOCKEND  LVL=0     ---     ---   
      02B980H     PUBLIC    LABEL     ---     ---   Process_SetStatus
      02B9C4H     PUBLIC    LABEL     ---     ---   Process_BDPSStatus
      02BA32H     PUBLIC    LABEL     ---     ---   Process_GetInfo
      02BE0CH     PUBLIC    LABEL     ---     ---   Process_IMDBStart
      02B994H     PUBLIC    LABEL     ---     ---   Process_BDGPStatus
      02B9ACH     PUBLIC    LABEL     ---     ---   Process_BDMGStatus
      02B97AH     PUBLIC    LABEL     ---     ---   Process_GetWaitCounter
      02BA44H     PUBLIC    LABEL     ---     ---   Process_MainProc
L166 LINKER/LOCATER V5.25                                                             12/14/2017  11:31:13  PAGE 23


      02B974H     PUBLIC    LABEL     ---     ---   Process_ResetWaitCounter
      02BA38H     PUBLIC    LABEL     ---     ---   Process_GetOperationMode
      02B93EH     PUBLIC    LABEL     ---     ---   Process_Initializetion
      02BA12H     PUBLIC    LABEL     ---     ---   Process_GetBDPSStatus
      02BE32H     PUBLIC    LABEL     ---     ---   Process_IMDBStop
      02BA00H     PUBLIC    LABEL     ---     ---   Process_GetBDGPState
      02B9EEH     PUBLIC    LABEL     ---     ---   Process_GetBDMGState
      05051CH     PUBLIC    VAR       ---     ---   counter
      050521H     PUBLIC    VAR       ---     ---   processByte
      05050CH     SYMBOL    VAR       ---     ---   ProcessDoseRateExceeded
      050512H     SYMBOL    VAR       ---     ---   waitCounter
      050514H     SYMBOL    VAR       ---     ---   ProcessDoseExceeded
      050518H     SYMBOL    VAR       ---     ---   mainCounter
      050520H     SYMBOL    VAR       ---     ---   bdgpsRptCounter

      02B93EH     BLOCK     LVL=0     0036H   ---   Process_Initializetion
      02B93EH     LINE      ---       ---     ---   #23
      02B93EH     LINE      ---       ---     ---   #25
      02B942H     LINE      ---       ---     ---   #26
      02B94AH     LINE      ---       ---     ---   #27
      02B94EH     LINE      ---       ---     ---   #28
      02B952H     LINE      ---       ---     ---   #30
      02B962H     LINE      ---       ---     ---   #31
      02B972H     LINE      ---       ---     ---   #34
      ---         BLOCKEND  LVL=0     ---     ---   

      02B974H     BLOCK     LVL=0     0006H   ---   Process_ResetWaitCounter
      02B974H     LINE      ---       ---     ---   #35
      02B974H     LINE      ---       ---     ---   #37
      02B978H     LINE      ---       ---     ---   #38
      ---         BLOCKEND  LVL=0     ---     ---   

      02B97AH     BLOCK     LVL=0     0006H   ---   Process_GetWaitCounter
      02B97AH     LINE      ---       ---     ---   #39
      02B97AH     LINE      ---       ---     ---   #41
      02B97EH     LINE      ---       ---     ---   #42
      ---         BLOCKEND  LVL=0     ---     ---   

      02B980H     BLOCK     LVL=0     0014H   ---   Process_SetStatus
      000008H     SYMBOL    REG       ---     ---   Status
      02B980H     LINE      ---       ---     ---   #44
      02B980H     LINE      ---       ---     ---   #47
      02B988H     LINE      ---       ---     ---   #48
      02B992H     LINE      ---       ---     ---   #50
      ---         BLOCKEND  LVL=0     ---     ---   

      02B994H     BLOCK     LVL=0     0018H   ---   Process_BDGPStatus
      000008H     SYMBOL    REG       ---     ---   Status
      02B994H     LINE      ---       ---     ---   #51
      02B994H     LINE      ---       ---     ---   #53
      02B998H     LINE      ---       ---     ---   #54
      02B9A2H     LINE      ---       ---     ---   #56
      02B9AAH     LINE      ---       ---     ---   #59
      ---         BLOCKEND  LVL=0     ---     ---   

      02B9ACH     BLOCK     LVL=0     0018H   ---   Process_BDMGStatus
      000008H     SYMBOL    REG       ---     ---   Status
L166 LINKER/LOCATER V5.25                                                             12/14/2017  11:31:13  PAGE 24


      02B9ACH     LINE      ---       ---     ---   #60
      02B9ACH     LINE      ---       ---     ---   #62
      02B9B0H     LINE      ---       ---     ---   #63
      02B9BAH     LINE      ---       ---     ---   #65
      02B9C2H     LINE      ---       ---     ---   #66
      ---         BLOCKEND  LVL=0     ---     ---   

      02B9C4H     BLOCK     LVL=0     002AH   ---   Process_BDPSStatus
      000008H     SYMBOL    REG       ---     ---   Status
      02B9C4H     LINE      ---       ---     ---   #67
      02B9C4H     LINE      ---       ---     ---   #69
      02B9CCH     LINE      ---       ---     ---   #70
      02B9D4H     LINE      ---       ---     ---   #73
      02B9D8H     LINE      ---       ---     ---   #74
      02B9E0H     LINE      ---       ---     ---   #75
      02B9E4H     LINE      ---       ---     ---   #76
      02B9ECH     LINE      ---       ---     ---   #78
      ---         BLOCKEND  LVL=0     ---     ---   

      02B9EEH     BLOCK     LVL=0     0012H   ---   Process_GetBDMGState
      02B9EEH     LINE      ---       ---     ---   #79
      02B9EEH     LINE      ---       ---     ---   #81
      02B9FCH     LINE      ---       ---     ---   #82
      02B9FEH     LINE      ---       ---     ---   #83
      ---         BLOCKEND  LVL=0     ---     ---   

      02BA00H     BLOCK     LVL=0     0012H   ---   Process_GetBDGPState
      02BA00H     LINE      ---       ---     ---   #84
      02BA00H     LINE      ---       ---     ---   #86
      02BA0EH     LINE      ---       ---     ---   #87
      02BA10H     LINE      ---       ---     ---   #88
      ---         BLOCKEND  LVL=0     ---     ---   

      02BA12H     BLOCK     LVL=0     0020H   ---   Process_GetBDPSStatus
      02BA12H     LINE      ---       ---     ---   #89
      02BA12H     LINE      ---       ---     ---   #91
      02BA22H     LINE      ---       ---     ---   #92
      02BA2EH     LINE      ---       ---     ---   #93
      02BA30H     LINE      ---       ---     ---   #94
      ---         BLOCKEND  LVL=0     ---     ---   

      02BA32H     BLOCK     LVL=0     0006H   ---   Process_GetInfo
      02BA32H     LINE      ---       ---     ---   #97
      02BA32H     LINE      ---       ---     ---   #99
      02BA36H     LINE      ---       ---     ---   #100
      ---         BLOCKEND  LVL=0     ---     ---   

      02BA38H     BLOCK     LVL=0     000CH   ---   Process_GetOperationMode
      02BA38H     LINE      ---       ---     ---   #103
      02BA38H     LINE      ---       ---     ---   #105
      02BA42H     LINE      ---       ---     ---   #106
      ---         BLOCKEND  LVL=0     ---     ---   

      02BA44H     BLOCK     LVL=0     03C8H   ---   Process_MainProc
      02BA72H     BLOCK     LVL=1     036EH   ---   
      00000EH     SYMBOL    REG       ---     ---   outsideDoseRate
      000000H     SYMBOL    AUTO      ---     ---   insideDose
L166 LINKER/LOCATER V5.25                                                             12/14/2017  11:31:13  PAGE 25


      ---         BLOCKEND  LVL=1     ---     ---   
      02BA44H     LINE      ---       ---     ---   #108
      02BA72H     LINE      ---       ---     ---   #109
      02BA72H     LINE      ---       ---     ---   #110
      02BA72H     LINE      ---       ---     ---   #111
      02BA76H     LINE      ---       ---     ---   #112
      02BA7EH     LINE      ---       ---     ---   #114
      02BA7EH     LINE      ---       ---     ---   #115
      02BA7EH     LINE      ---       ---     ---   #139
      02BA92H     LINE      ---       ---     ---   #141
      02BA92H     LINE      ---       ---     ---   #144
      02BAA2H     LINE      ---       ---     ---   #154
      02BAAAH     LINE      ---       ---     ---   #156
      02BAB2H     LINE      ---       ---     ---   #158
      02BAB8H     LINE      ---       ---     ---   #160
      02BAC0H     LINE      ---       ---     ---   #161
      02BACAH     LINE      ---       ---     ---   #162
      02BACEH     LINE      ---       ---     ---   #163
      02BAD2H     LINE      ---       ---     ---   #165
      02BAD6H     LINE      ---       ---     ---   #166
      02BAD6H     LINE      ---       ---     ---   #172
      02BADEH     LINE      ---       ---     ---   #173
      02BAE2H     LINE      ---       ---     ---   #174
      02BAE4H     LINE      ---       ---     ---   #175
      02BAECH     LINE      ---       ---     ---   #176
      02BAF0H     LINE      ---       ---     ---   #178
      02BAF2H     LINE      ---       ---     ---   #181
      02BAF8H     LINE      ---       ---     ---   #182
      02BAF8H     LINE      ---       ---     ---   #183
      02BAF8H     LINE      ---       ---     ---   #184
      02BAFAH     LINE      ---       ---     ---   #187
      02BB0AH     LINE      ---       ---     ---   #188
      02BB0EH     LINE      ---       ---     ---   #189
      02BB0EH     LINE      ---       ---     ---   #191
      02BB14H     LINE      ---       ---     ---   #193
      02BB14H     LINE      ---       ---     ---   #194
      02BB18H     LINE      ---       ---     ---   #196
      02BB18H     LINE      ---       ---     ---   #203
      02BB20H     LINE      ---       ---     ---   #205
      02BB30H     LINE      ---       ---     ---   #206
      02BB34H     LINE      ---       ---     ---   #207
      02BB38H     LINE      ---       ---     ---   #210
      02BB40H     LINE      ---       ---     ---   #211
      02BB44H     LINE      ---       ---     ---   #212
      02BB46H     LINE      ---       ---     ---   #213
      02BB4EH     LINE      ---       ---     ---   #214
      02BB52H     LINE      ---       ---     ---   #215
      02BB54H     LINE      ---       ---     ---   #217
      02BB54H     LINE      ---       ---     ---   #218
      02BB54H     LINE      ---       ---     ---   #219
      02BB54H     LINE      ---       ---     ---   #221
      02BB78H     LINE      ---       ---     ---   #223
      02BB82H     LINE      ---       ---     ---   #225
      02BB88H     LINE      ---       ---     ---   #226
      02BB8CH     LINE      ---       ---     ---   #228
      02BB90H     LINE      ---       ---     ---   #229
      02BB90H     LINE      ---       ---     ---   #231
L166 LINKER/LOCATER V5.25                                                             12/14/2017  11:31:13  PAGE 26


      02BB94H     LINE      ---       ---     ---   #236
      02BB9CH     LINE      ---       ---     ---   #238
      02BBA2H     LINE      ---       ---     ---   #239
      02BBA6H     LINE      ---       ---     ---   #241
      02BBAAH     LINE      ---       ---     ---   #242
      02BBAEH     LINE      ---       ---     ---   #244
      02BBB8H     LINE      ---       ---     ---   #246
      02BBBEH     LINE      ---       ---     ---   #247
      02BBC2H     LINE      ---       ---     ---   #249
      02BBC6H     LINE      ---       ---     ---   #250
      02BBCAH     LINE      ---       ---     ---   #255
      02BBCAH     LINE      ---       ---     ---   #256
      02BBCAH     LINE      ---       ---     ---   #258
      02BBCAH     LINE      ---       ---     ---   #260
      02BBCAH     LINE      ---       ---     ---   #263
      02BBCAH     LINE      ---       ---     ---   #265
      02BBCAH     LINE      ---       ---     ---   #280
      02BBD2H     LINE      ---       ---     ---   #281
      02BBDAH     LINE      ---       ---     ---   #284
      02BBDCH     LINE      ---       ---     ---   #286
      02BC00H     LINE      ---       ---     ---   #288
      02BC08H     LINE      ---       ---     ---   #289
      02BC0EH     LINE      ---       ---     ---   #291
      02BC12H     LINE      ---       ---     ---   #293
      02BC1CH     LINE      ---       ---     ---   #297
      02BC36H     LINE      ---       ---     ---   #299
      02BC3CH     LINE      ---       ---     ---   #300
      02BC42H     LINE      ---       ---     ---   #301
      02BC48H     LINE      ---       ---     ---   #302
      02BC4AH     LINE      ---       ---     ---   #305
      02BC52H     LINE      ---       ---     ---   #306
      02BC56H     LINE      ---       ---     ---   #307
      02BC5CH     LINE      ---       ---     ---   #308
      02BC5CH     LINE      ---       ---     ---   #311
      02BC76H     LINE      ---       ---     ---   #313
      02BC7CH     LINE      ---       ---     ---   #314
      02BC82H     LINE      ---       ---     ---   #315
      02BC88H     LINE      ---       ---     ---   #316
      02BC8AH     LINE      ---       ---     ---   #319
      02BC92H     LINE      ---       ---     ---   #320
      02BC96H     LINE      ---       ---     ---   #321
      02BC9CH     LINE      ---       ---     ---   #322
      02BC9CH     LINE      ---       ---     ---   #325
      02BCB6H     LINE      ---       ---     ---   #327
      02BCBCH     LINE      ---       ---     ---   #328
      02BCC2H     LINE      ---       ---     ---   #329
      02BCC8H     LINE      ---       ---     ---   #330
      02BCCAH     LINE      ---       ---     ---   #333
      02BCD2H     LINE      ---       ---     ---   #334
      02BCD6H     LINE      ---       ---     ---   #335
      02BCDCH     LINE      ---       ---     ---   #336
      02BCDCH     LINE      ---       ---     ---   #339
      02BCF6H     LINE      ---       ---     ---   #341
      02BCFCH     LINE      ---       ---     ---   #342
      02BD02H     LINE      ---       ---     ---   #343
      02BD08H     LINE      ---       ---     ---   #344
      02BD0AH     LINE      ---       ---     ---   #347
L166 LINKER/LOCATER V5.25                                                             12/14/2017  11:31:13  PAGE 27


      02BD12H     LINE      ---       ---     ---   #348
      02BD16H     LINE      ---       ---     ---   #349
      02BD1CH     LINE      ---       ---     ---   #350
      02BD1CH     LINE      ---       ---     ---   #370
      02BD38H     LINE      ---       ---     ---   #371
      02BD3EH     LINE      ---       ---     ---   #372
      02BD44H     LINE      ---       ---     ---   #373
      02BD4AH     LINE      ---       ---     ---   #374
      02BD4AH     LINE      ---       ---     ---   #376
      02BD66H     LINE      ---       ---     ---   #377
      02BD6CH     LINE      ---       ---     ---   #378
      02BD72H     LINE      ---       ---     ---   #379
      02BD78H     LINE      ---       ---     ---   #380
      02BD78H     LINE      ---       ---     ---   #382
      02BD94H     LINE      ---       ---     ---   #383
      02BD9AH     LINE      ---       ---     ---   #384
      02BDA0H     LINE      ---       ---     ---   #385
      02BDA6H     LINE      ---       ---     ---   #386
      02BDA6H     LINE      ---       ---     ---   #388
      02BDC2H     LINE      ---       ---     ---   #389
      02BDC8H     LINE      ---       ---     ---   #390
      02BDCEH     LINE      ---       ---     ---   #391
      02BDD4H     LINE      ---       ---     ---   #392
      02BDD4H     LINE      ---       ---     ---   #397
      02BDD4H     LINE      ---       ---     ---   #399
      02BDD4H     LINE      ---       ---     ---   #403
      02BDD4H     LINE      ---       ---     ---   #404
      02BDD4H     LINE      ---       ---     ---   #405
      02BDDCH     LINE      ---       ---     ---   #406
      02BDE0H     LINE      ---       ---     ---   #409
      02BDE0H     LINE      ---       ---     ---   #414
      ---         BLOCKEND  LVL=0     ---     ---   

      02BE0CH     BLOCK     LVL=0     0026H   ---   Process_IMDBStart
      02BE0CH     LINE      ---       ---     ---   #418
      02BE0CH     LINE      ---       ---     ---   #420
      02BE14H     LINE      ---       ---     ---   #421
      02BE18H     LINE      ---       ---     ---   #422
      02BE20H     LINE      ---       ---     ---   #423
      02BE24H     LINE      ---       ---     ---   #424
      02BE2CH     LINE      ---       ---     ---   #425
      02BE30H     LINE      ---       ---     ---   #426
      ---         BLOCKEND  LVL=0     ---     ---   

      02BE32H     BLOCK     LVL=0     000EH   ---   Process_IMDBStop
      02BE32H     LINE      ---       ---     ---   #427
      02BE32H     LINE      ---       ---     ---   #429
      02BE36H     LINE      ---       ---     ---   #430
      02BE3AH     LINE      ---       ---     ---   #431
      02BE3EH     LINE      ---       ---     ---   #432
      ---         BLOCKEND  LVL=0     ---     ---   
      00405CH     PUBLIC    VAR       ---     ---   ServiceMsg
      029378H     PUBLIC    LABEL     ---     ---   IMDB_NuclideEndDetectionSignalCallback
      028E5AH     PUBLIC    LABEL     ---     ---   IMDB_SendNuclideDetection
      029A1EH     PUBLIC    LABEL     ---     ---   IMDB_DEBUG_SendDataMsg
      0293CCH     PUBLIC    LABEL     ---     ---   IMDB_Metrology_AllBDParametrRequest
      0286C0H     PUBLIC    LABEL     ---     ---   IMDB_PackageAnalysis
L166 LINKER/LOCATER V5.25                                                             12/14/2017  11:31:13  PAGE 28


      028BAEH     PUBLIC    LABEL     ---     ---   IMDB_SendInsideDose
      02933CH     PUBLIC    LABEL     ---     ---   IMDB_BDPSGetParametrsSignalCallback
      0294E8H     PUBLIC    LABEL     ---     ---   IMDB_Metrology_WriteBDParametrs
      02939EH     PUBLIC    LABEL     ---     ---   IMDB_NuclideIdentificationSignalCallback
      029596H     PUBLIC    LABEL     ---     ---   IMDB_Metrology_ReadBSParametrs
      02943CH     PUBLIC    LABEL     ---     ---   IMDB_Metrology_SendBDParametrs
      028616H     PUBLIC    LABEL     ---     ---   IMDB_ReceiveByteCallback
      028256H     PUBLIC    LABEL     ---     ---   IMDBProtocol_Init
      029330H     PUBLIC    LABEL     ---     ---   IMDB_BDGPGetParametrsSignalCallback
      029324H     PUBLIC    LABEL     ---     ---   IMDB_BDMGGetParametrsSignalCallback
      028EDEH     PUBLIC    LABEL     ---     ---   IMDB_SendPacket
      028F4CH     PUBLIC    LABEL     ---     ---   IMDB_SendAngularDistribution
      029348H     PUBLIC    LABEL     ---     ---   IMDB_BDPSWriteParametrsSignalCallback
      02936CH     PUBLIC    LABEL     ---     ---   IMDB_NuclideDetectionSignalCallback
      029044H     PUBLIC    LABEL     ---     ---   IMDB_Process
      0283DCH     PUBLIC    LABEL     ---     ---   IMDBProtocol_GetPacketFromStream
      029354H     PUBLIC    LABEL     ---     ---   IMDB_BDGPWriteParametrsSignalCallback
      029360H     PUBLIC    LABEL     ---     ---   IMDB_BDMGWriteParametrsSignalCallback
      028D8CH     PUBLIC    LABEL     ---     ---   IMDB_SendOutsideDoseFeature
      0296D8H     PUBLIC    LABEL     ---     ---   IMDB_Metrology_GetBDData
      02900CH     PUBLIC    LABEL     ---     ---   IMDB_SendAccumSpectrSuccess
      028D6AH     PUBLIC    LABEL     ---     ---   IMDB_SendInsideDoseFeature
      029798H     PUBLIC    LABEL     ---     ---   IMDB_Metrology_SpectrometryMode
      02957EH     PUBLIC    LABEL     ---     ---   IMDB_Metrology_DefaultSettings
      028E3EH     PUBLIC    LABEL     ---     ---   IMDB_SendDoseRateExceeded
      029384H     PUBLIC    LABEL     ---     ---   IMDB_SendAccumSpectrSuccessSignalCallback
      028B76H     PUBLIC    LABEL     ---     ---   IMDB_SendIdentification
      029648H     PUBLIC    LABEL     ---     ---   IMDB_Metrology_StartBD
      0295FAH     PUBLIC    LABEL     ---     ---   IMDB_SendStartMeasureInPoint
      0293C0H     PUBLIC    LABEL     ---     ---   IMDB_SendMeasureInPointEndSignalCallback
      028E22H     PUBLIC    LABEL     ---     ---   IMDB_SendDoseExceeded
      028DB2H     PUBLIC    LABEL     ---     ---   IMDB_SendMaxAngle
      028632H     PUBLIC    LABEL     ---     ---   IMDB_ReceiveByteReading
      0292F2H     PUBLIC    LABEL     ---     ---   IMDB_ResetAllBDSignalCallback
      029400H     PUBLIC    LABEL     ---     ---   IMDB_Metrology_AllBDWriteParametr
      0295EAH     PUBLIC    LABEL     ---     ---   IMDB_SendError
      028B86H     PUBLIC    LABEL     ---     ---   IMDB_SendState
      02984CH     PUBLIC    LABEL     ---     ---   IMDB_Metrology_SendCurrentSpectrData
      0282C2H     PUBLIC    LABEL     ---     ---   IMDBProtocol_CreatePacket
      0293B4H     PUBLIC    LABEL     ---     ---   IMDB_NuclideIdentificationEndSignalCallback
      028C5AH     PUBLIC    LABEL     ---     ---   IMDB_SendOutsideDoseRate
      028E76H     PUBLIC    LABEL     ---     ---   IMDB_SendNuclideIdentification
      028CD4H     PUBLIC    LABEL     ---     ---   IMDB_SendInsideDoseRate
      028EAEH     PUBLIC    LABEL     ---     ---   IMDB_SendMeasureInPointSuccess
      028E92H     PUBLIC    LABEL     ---     ---   IMDB_SendCanTransmitError
      028BA8H     PUBLIC    LABEL     ---     ---   IMDB_SendReady
      0295ACH     PUBLIC    LABEL     ---     ---   IMDB_Metrology_WriteBSParametrs
      02990CH     PUBLIC    LABEL     ---     ---   IMDB_Metrology_SendAccumSpectrBlockData
      029028H     PUBLIC    LABEL     ---     ---   IMDB_SendCalibrationState
      050400H     PUBLIC    VAR       ---     ---   rIndex
      050406H     PUBLIC    VAR       ---     ---   testMS
      050412H     PUBLIC    VAR       ---     ---   interruptBuffer
      050402H     SYMBOL    VAR       ---     ---   writeBufInd
      05040AH     SYMBOL    VAR       ---     ---   cmdCnt
      05040EH     SYMBOL    VAR       ---     ---   readBufInd
      623E30H     PUBLIC    VAR       ---     ---   receiveBuffer
      624030H     SYMBOL    VAR       ---     ---   MetrologyData
L166 LINKER/LOCATER V5.25                                                             12/14/2017  11:31:13  PAGE 29


      624039H     SYMBOL    VAR       ---     ---   visualSpecBuf
      62443AH     SYMBOL    VAR       ---     ---   ProtocolRequests

      028256H     BLOCK     LVL=0     006CH   ---   IMDBProtocol_Init
      028256H     LINE      ---       ---     ---   #38
      028256H     LINE      ---       ---     ---   #47
      02825EH     LINE      ---       ---     ---   #48
      028266H     LINE      ---       ---     ---   #49
      02826EH     LINE      ---       ---     ---   #50
      028272H     LINE      ---       ---     ---   #51
      02827AH     LINE      ---       ---     ---   #52
      02828CH     LINE      ---       ---     ---   #53
      02829CH     LINE      ---       ---     ---   #55
      0282AEH     LINE      ---       ---     ---   #56
      0282C0H     LINE      ---       ---     ---   #58
      ---         BLOCKEND  LVL=0     ---     ---   

      0282C2H     BLOCK     LVL=0     011AH   ---   IMDBProtocol_CreatePacket
      00000AH     SYMBOL    AUTO      ---     ---   cmd
      00000EH     SYMBOL    REG       ---     ---   pData
      00004DH     SYMBOL    REG       ---     ---   dataSize
      00000CH     SYMBOL    AUTO      ---     ---   packSize
      0282D6H     BLOCK     LVL=1     00FAH   ---   
      000000H     SYMBOL    AUTO      ---     ---   bufferSize
      000002H     SYMBOL    AUTO      ---     ---   pBuf
      000006H     SYMBOL    AUTO      ---     ---   ks
      000008H     SYMBOL    AUTO      ---     ---   i
      ---         BLOCKEND  LVL=1     ---     ---   
      0282C2H     LINE      ---       ---     ---   #61
      0282D6H     LINE      ---       ---     ---   #62
      0282D6H     LINE      ---       ---     ---   #63
      0282DEH     LINE      ---       ---     ---   #64
      0282F0H     LINE      ---       ---     ---   #66
      0282FAH     LINE      ---       ---     ---   #68
      0282FEH     LINE      ---       ---     ---   #70
      02830EH     LINE      ---       ---     ---   #71
      028320H     LINE      ---       ---     ---   #72
      028334H     LINE      ---       ---     ---   #73
      02834CH     LINE      ---       ---     ---   #75
      028354H     LINE      ---       ---     ---   #76
      028390H     LINE      ---       ---     ---   #78
      0283BAH     LINE      ---       ---     ---   #80
      0283C8H     LINE      ---       ---     ---   #83
      0283C8H     LINE      ---       ---     ---   #84
      0283D0H     LINE      ---       ---     ---   #85
      ---         BLOCKEND  LVL=0     ---     ---   

      0283DCH     BLOCK     LVL=0     023AH   ---   IMDBProtocol_GetPacketFromStream
      00000EH     SYMBOL    REG       ---     ---   pDataBuf
      00000DH     SYMBOL    REG       ---     ---   sDataBuf
      00000CH     SYMBOL    AUTO      ---     ---   pDataBufIndex
      000010H     SYMBOL    AUTO      ---     ---   InputByte
      000012H     SYMBOL    AUTO      ---     ---   packSize
      0283F0H     BLOCK     LVL=1     021AH   ---   
      000000H     SYMBOL    AUTO      ---     ---   index
      000009H     SYMBOL    REG       ---     ---   i
      000002H     SYMBOL    AUTO      ---     ---   ii
L166 LINKER/LOCATER V5.25                                                             12/14/2017  11:31:13  PAGE 30


      000004H     SYMBOL    AUTO      ---     ---   ks
      000006H     SYMBOL    AUTO      ---     ---   pKS
      000008H     SYMBOL    AUTO      ---     ---   len
      00000EH     SYMBOL    REG       ---     ---   pD
      00000AH     SYMBOL    AUTO      ---     ---   iD
      ---         BLOCKEND  LVL=1     ---     ---   
      0283DCH     LINE      ---       ---     ---   #94
      0283F0H     LINE      ---       ---     ---   #95
      0283F0H     LINE      ---       ---     ---   #98
      0283FAH     LINE      ---       ---     ---   #102
      0283FEH     LINE      ---       ---     ---   #104
      028408H     LINE      ---       ---     ---   #105
      028416H     LINE      ---       ---     ---   #108
      028424H     LINE      ---       ---     ---   #109
      02842AH     LINE      ---       ---     ---   #110
      028458H     LINE      ---       ---     ---   #111
      028472H     LINE      ---       ---     ---   #112
      02847CH     LINE      ---       ---     ---   #113
      02847CH     LINE      ---       ---     ---   #115
      028482H     LINE      ---       ---     ---   #117
      028496H     LINE      ---       ---     ---   #118
      02849CH     LINE      ---       ---     ---   #120
      0284AAH     LINE      ---       ---     ---   #121
      0284B0H     LINE      ---       ---     ---   #122
      0284DEH     LINE      ---       ---     ---   #123
      0284F8H     LINE      ---       ---     ---   #124
      028502H     LINE      ---       ---     ---   #125
      028502H     LINE      ---       ---     ---   #131
      02851AH     LINE      ---       ---     ---   #132
      028522H     LINE      ---       ---     ---   #133
      02852EH     LINE      ---       ---     ---   #135
      02852EH     LINE      ---       ---     ---   #136
      028534H     LINE      ---       ---     ---   #138
      028534H     LINE      ---       ---     ---   #139
      02853CH     LINE      ---       ---     ---   #141
      028546H     LINE      ---       ---     ---   #142
      028558H     LINE      ---       ---     ---   #144
      02855CH     LINE      ---       ---     ---   #146
      028564H     LINE      ---       ---     ---   #148
      02859AH     LINE      ---       ---     ---   #150
      02859EH     LINE      ---       ---     ---   #151
      0285C8H     LINE      ---       ---     ---   #153
      0285D4H     LINE      ---       ---     ---   #155
      0285F2H     LINE      ---       ---     ---   #157
      0285F8H     LINE      ---       ---     ---   #158
      0285F8H     LINE      ---       ---     ---   #160
      0285F8H     LINE      ---       ---     ---   #162
      0285F8H     LINE      ---       ---     ---   #163
      0285FCH     LINE      ---       ---     ---   #164
      028604H     LINE      ---       ---     ---   #165
      028606H     LINE      ---       ---     ---   #166
      02860AH     LINE      ---       ---     ---   #168
      ---         BLOCKEND  LVL=0     ---     ---   

      028616H     BLOCK     LVL=0     001CH   ---   IMDB_ReceiveByteCallback
      000048H     SYMBOL    REG       ---     ---   inputByte
      028616H     LINE      ---       ---     ---   #170
L166 LINKER/LOCATER V5.25                                                             12/14/2017  11:31:13  PAGE 31


      028616H     LINE      ---       ---     ---   #173
      028630H     LINE      ---       ---     ---   #193
      ---         BLOCKEND  LVL=0     ---     ---   

      028632H     BLOCK     LVL=0     008EH   ---   IMDB_ReceiveByteReading
      028638H     BLOCK     LVL=1     0080H   ---   
      00000EH     SYMBOL    REG       ---     ---   pPackage
      000082H     SYMBOL    REG       ---     ---   inputByte
      000000H     SYMBOL    AUTO      ---     ---   sPackage
      ---         BLOCKEND  LVL=1     ---     ---   
      028632H     LINE      ---       ---     ---   #197
      028638H     LINE      ---       ---     ---   #198
      028638H     LINE      ---       ---     ---   #201
      028638H     LINE      ---       ---     ---   #209
      02863AH     LINE      ---       ---     ---   #216
      028652H     LINE      ---       ---     ---   #218
      028684H     LINE      ---       ---     ---   #220
      028688H     LINE      ---       ---     ---   #222
      0286A2H     LINE      ---       ---     ---   #223
      0286A6H     LINE      ---       ---     ---   #224
      0286B8H     LINE      ---       ---     ---   #251
      ---         BLOCKEND  LVL=0     ---     ---   

      0286C0H     BLOCK     LVL=0     04B6H   ---   IMDB_PackageAnalysis
      000048H     SYMBOL    REG       ---     ---   cmd
      00004DH     SYMBOL    REG       ---     ---   bytesCount
      00000EH     SYMBOL    REG       ---     ---   pData
      0286CEH     BLOCK     LVL=1     049EH   ---   
      000000H     SYMBOL    AUTO      ---     ---   pSpectr
      000004H     SYMBOL    AUTO      ---     ---   spectrIndex
      ---         BLOCKEND  LVL=1     ---     ---   
      0286C0H     LINE      ---       ---     ---   #253
      0286CEH     LINE      ---       ---     ---   #254
      0286CEH     LINE      ---       ---     ---   #255
      0286D6H     LINE      ---       ---     ---   #256
      0286D6H     LINE      ---       ---     ---   #257
      0286D6H     LINE      ---       ---     ---   #258
      0286D6H     LINE      ---       ---     ---   #261
      0286DAH     LINE      ---       ---     ---   #265
      028740H     LINE      ---       ---     ---   #267
      028740H     LINE      ---       ---     ---   #269
      02874CH     LINE      ---       ---     ---   #270
      028758H     LINE      ---       ---     ---   #271
      02875CH     LINE      ---       ---     ---   #272
      02875CH     LINE      ---       ---     ---   #274
      028760H     LINE      ---       ---     ---   #276
      028760H     LINE      ---       ---     ---   #282
      0287A2H     LINE      ---       ---     ---   #284
      0287AAH     LINE      ---       ---     ---   #287
      0287AAH     LINE      ---       ---     ---   #290
      0287C2H     LINE      ---       ---     ---   #291
      0287C6H     LINE      ---       ---     ---   #292
      0287CAH     LINE      ---       ---     ---   #293
      0287CAH     LINE      ---       ---     ---   #294
      0287D2H     LINE      ---       ---     ---   #295
      0287D6H     LINE      ---       ---     ---   #296
      0287DAH     LINE      ---       ---     ---   #297
L166 LINKER/LOCATER V5.25                                                             12/14/2017  11:31:13  PAGE 32


      0287DAH     LINE      ---       ---     ---   #299
      0287E4H     LINE      ---       ---     ---   #300
      0287E8H     LINE      ---       ---     ---   #302
      0287E8H     LINE      ---       ---     ---   #306
      0287ECH     LINE      ---       ---     ---   #309
      0287ECH     LINE      ---       ---     ---   #322
      0287F4H     LINE      ---       ---     ---   #323
      0287F8H     LINE      ---       ---     ---   #325
      028802H     LINE      ---       ---     ---   #326
      028806H     LINE      ---       ---     ---   #327
      02880AH     LINE      ---       ---     ---   #328
      028812H     LINE      ---       ---     ---   #329
      028816H     LINE      ---       ---     ---   #331
      028820H     LINE      ---       ---     ---   #332
      028824H     LINE      ---       ---     ---   #333
      028828H     LINE      ---       ---     ---   #335
      02882CH     LINE      ---       ---     ---   #337
      028830H     LINE      ---       ---     ---   #339
      028830H     LINE      ---       ---     ---   #341
      028838H     LINE      ---       ---     ---   #342
      02883CH     LINE      ---       ---     ---   #343
      028846H     LINE      ---       ---     ---   #344
      02884AH     LINE      ---       ---     ---   #346
      02884EH     LINE      ---       ---     ---   #347
      028852H     LINE      ---       ---     ---   #349
      028852H     LINE      ---       ---     ---   #351
      028856H     LINE      ---       ---     ---   #352
      028860H     LINE      ---       ---     ---   #353
      028864H     LINE      ---       ---     ---   #355
      028864H     LINE      ---       ---     ---   #358
      028868H     LINE      ---       ---     ---   #361
      02886EH     LINE      ---       ---     ---   #362
      028878H     LINE      ---       ---     ---   #363
      02887CH     LINE      ---       ---     ---   #365
      02887CH     LINE      ---       ---     ---   #368
      028880H     LINE      ---       ---     ---   #371
      028886H     LINE      ---       ---     ---   #372
      028890H     LINE      ---       ---     ---   #373
      028894H     LINE      ---       ---     ---   #375
      028894H     LINE      ---       ---     ---   #378
      028898H     LINE      ---       ---     ---   #381
      02889EH     LINE      ---       ---     ---   #382
      0288A8H     LINE      ---       ---     ---   #383
      0288ACH     LINE      ---       ---     ---   #385
      0288ACH     LINE      ---       ---     ---   #388
      0288B0H     LINE      ---       ---     ---   #390
      0288B6H     LINE      ---       ---     ---   #391
      0288C0H     LINE      ---       ---     ---   #392
      0288C0H     LINE      ---       ---     ---   #395
      0288C0H     LINE      ---       ---     ---   #398
      0288C4H     LINE      ---       ---     ---   #400
      0288C4H     LINE      ---       ---     ---   #402
      028900H     LINE      ---       ---     ---   #404
      028900H     LINE      ---       ---     ---   #406
      02890CH     LINE      ---       ---     ---   #407
      028918H     LINE      ---       ---     ---   #409
      02891CH     LINE      ---       ---     ---   #411
L166 LINKER/LOCATER V5.25                                                             12/14/2017  11:31:13  PAGE 33


      02891CH     LINE      ---       ---     ---   #413
      028928H     LINE      ---       ---     ---   #414
      028934H     LINE      ---       ---     ---   #416
      028938H     LINE      ---       ---     ---   #418
      028938H     LINE      ---       ---     ---   #420
      028944H     LINE      ---       ---     ---   #421
      028950H     LINE      ---       ---     ---   #423
      028954H     LINE      ---       ---     ---   #425
      028954H     LINE      ---       ---     ---   #427
      028960H     LINE      ---       ---     ---   #428
      02896CH     LINE      ---       ---     ---   #430
      028970H     LINE      ---       ---     ---   #432
      028970H     LINE      ---       ---     ---   #434
      02897CH     LINE      ---       ---     ---   #435
      028988H     LINE      ---       ---     ---   #438
      02898CH     LINE      ---       ---     ---   #439
      02898CH     LINE      ---       ---     ---   #441
      028998H     LINE      ---       ---     ---   #442
      0289A4H     LINE      ---       ---     ---   #444
      0289A8H     LINE      ---       ---     ---   #446
      0289A8H     LINE      ---       ---     ---   #448
      0289B4H     LINE      ---       ---     ---   #449
      0289C0H     LINE      ---       ---     ---   #450
      0289C4H     LINE      ---       ---     ---   #452
      0289C4H     LINE      ---       ---     ---   #455
      0289C4H     LINE      ---       ---     ---   #457
      0289C4H     LINE      ---       ---     ---   #459
      0289CAH     LINE      ---       ---     ---   #461
      0289D4H     LINE      ---       ---     ---   #463
      0289D4H     LINE      ---       ---     ---   #465
      0289FCH     LINE      ---       ---     ---   #468
      028A06H     LINE      ---       ---     ---   #470
      028A0AH     LINE      ---       ---     ---   #471
      028A14H     LINE      ---       ---     ---   #474
      028A18H     LINE      ---       ---     ---   #475
      028A18H     LINE      ---       ---     ---   #476
      028A18H     LINE      ---       ---     ---   #478
      028A18H     LINE      ---       ---     ---   #480
      028A2EH     LINE      ---       ---     ---   #482
      028A2EH     LINE      ---       ---     ---   #484
      028A40H     LINE      ---       ---     ---   #485
      028A44H     LINE      ---       ---     ---   #486
      028A56H     LINE      ---       ---     ---   #487
      028A5AH     LINE      ---       ---     ---   #489
      028A5AH     LINE      ---       ---     ---   #491
      028A6CH     LINE      ---       ---     ---   #492
      028A70H     LINE      ---       ---     ---   #493
      028A82H     LINE      ---       ---     ---   #494
      028A84H     LINE      ---       ---     ---   #496
      028A84H     LINE      ---       ---     ---   #498
      028AB2H     LINE      ---       ---     ---   #500
      028AB6H     LINE      ---       ---     ---   #502
      028AC6H     LINE      ---       ---     ---   #503
      028AC8H     LINE      ---       ---     ---   #505
      028AC8H     LINE      ---       ---     ---   #514
      028AD2H     LINE      ---       ---     ---   #515
      028AD4H     LINE      ---       ---     ---   #517
L166 LINKER/LOCATER V5.25                                                             12/14/2017  11:31:13  PAGE 34


      028AD4H     LINE      ---       ---     ---   #519
      028AE6H     LINE      ---       ---     ---   #520
      028AE8H     LINE      ---       ---     ---   #522
      028AE8H     LINE      ---       ---     ---   #524
      028AFAH     LINE      ---       ---     ---   #525
      028AFCH     LINE      ---       ---     ---   #527
      028AFCH     LINE      ---       ---     ---   #529
      028B04H     LINE      ---       ---     ---   #530
      028B16H     LINE      ---       ---     ---   #532
      028B18H     LINE      ---       ---     ---   #534
      028B18H     LINE      ---       ---     ---   #536
      028B1CH     LINE      ---       ---     ---   #537
      028B1EH     LINE      ---       ---     ---   #539
      028B1EH     LINE      ---       ---     ---   #541
      028B22H     LINE      ---       ---     ---   #542
      028B24H     LINE      ---       ---     ---   #544
      028B24H     LINE      ---       ---     ---   #546
      028B2CH     LINE      ---       ---     ---   #547
      028B2EH     LINE      ---       ---     ---   #550
      028B2EH     LINE      ---       ---     ---   #552
      028B36H     LINE      ---       ---     ---   #553
      028B38H     LINE      ---       ---     ---   #556
      028B38H     LINE      ---       ---     ---   #558
      028B3CH     LINE      ---       ---     ---   #559
      028B3EH     LINE      ---       ---     ---   #562
      028B3EH     LINE      ---       ---     ---   #564
      028B46H     LINE      ---       ---     ---   #565
      028B48H     LINE      ---       ---     ---   #567
      028B48H     LINE      ---       ---     ---   #569
      028B52H     LINE      ---       ---     ---   #570
      028B6CH     LINE      ---       ---     ---   #573
      028B6CH     LINE      ---       ---     ---   #575
      028B6CH     LINE      ---       ---     ---   #578
      028B6CH     LINE      ---       ---     ---   #580
      028B6CH     LINE      ---       ---     ---   #581
      ---         BLOCKEND  LVL=0     ---     ---   

      028B76H     BLOCK     LVL=0     0010H   ---   IMDB_SendIdentification
      028B76H     LINE      ---       ---     ---   #582
      028B76H     LINE      ---       ---     ---   #584
      028B84H     LINE      ---       ---     ---   #585
      ---         BLOCKEND  LVL=0     ---     ---   

      028B86H     BLOCK     LVL=0     0022H   ---   IMDB_SendState
      028B88H     BLOCK     LVL=1     001CH   ---   
      000000H     SYMBOL    AUTO      ---     ---   stateByte
      ---         BLOCKEND  LVL=1     ---     ---   
      028B86H     LINE      ---       ---     ---   #587
      028B88H     LINE      ---       ---     ---   #588
      028B88H     LINE      ---       ---     ---   #589
      028B8EH     LINE      ---       ---     ---   #590
      028BA4H     LINE      ---       ---     ---   #591
      ---         BLOCKEND  LVL=0     ---     ---   

      028BA8H     BLOCK     LVL=0     0006H   ---   IMDB_SendReady
      028BA8H     LINE      ---       ---     ---   #592
      028BA8H     LINE      ---       ---     ---   #593
L166 LINKER/LOCATER V5.25                                                             12/14/2017  11:31:13  PAGE 35


      028BA8H     LINE      ---       ---     ---   #594
      028BACH     LINE      ---       ---     ---   #596
      ---         BLOCKEND  LVL=0     ---     ---   

      028BAEH     BLOCK     LVL=0     00ACH   ---   IMDB_SendInsideDose
      028BB2H     BLOCK     LVL=1     00A2H   ---   
      000000H     SYMBOL    AUTO      ---     ---   Dose
      ---         BLOCKEND  LVL=1     ---     ---   
      028BAEH     LINE      ---       ---     ---   #598
      028BB2H     LINE      ---       ---     ---   #599
      028BB2H     LINE      ---       ---     ---   #600
      028BBAH     LINE      ---       ---     ---   #602
      028BC2H     LINE      ---       ---     ---   #603
      028BCEH     LINE      ---       ---     ---   #605
      028BE4H     LINE      ---       ---     ---   #606
      028BECH     LINE      ---       ---     ---   #607
      028C14H     LINE      ---       ---     ---   #609
      028C3AH     LINE      ---       ---     ---   #610
      028C3AH     LINE      ---       ---     ---   #612
      028C54H     LINE      ---       ---     ---   #613
      ---         BLOCKEND  LVL=0     ---     ---   

      028C5AH     BLOCK     LVL=0     007AH   ---   IMDB_SendOutsideDoseRate
      028C5EH     BLOCK     LVL=1     0070H   ---   
      000000H     SYMBOL    AUTO      ---     ---   doseRateVal
      ---         BLOCKEND  LVL=1     ---     ---   
      028C5AH     LINE      ---       ---     ---   #616
      028C5EH     LINE      ---       ---     ---   #617
      028C5EH     LINE      ---       ---     ---   #618
      028C66H     LINE      ---       ---     ---   #621
      028C6EH     LINE      ---       ---     ---   #622
      028C7AH     LINE      ---       ---     ---   #624
      028C82H     LINE      ---       ---     ---   #625
      028C8EH     LINE      ---       ---     ---   #627
      028CB4H     LINE      ---       ---     ---   #628
      028CB4H     LINE      ---       ---     ---   #630
      028CCEH     LINE      ---       ---     ---   #631
      ---         BLOCKEND  LVL=0     ---     ---   

      028CD4H     BLOCK     LVL=0     0096H   ---   IMDB_SendInsideDoseRate
      028CD8H     BLOCK     LVL=1     008CH   ---   
      000000H     SYMBOL    AUTO      ---     ---   doseRateVal
      ---         BLOCKEND  LVL=1     ---     ---   
      028CD4H     LINE      ---       ---     ---   #633
      028CD8H     LINE      ---       ---     ---   #634
      028CD8H     LINE      ---       ---     ---   #635
      028CE0H     LINE      ---       ---     ---   #637
      028CE8H     LINE      ---       ---     ---   #638
      028CF4H     LINE      ---       ---     ---   #641
      028CFCH     LINE      ---       ---     ---   #642
      028D24H     LINE      ---       ---     ---   #644
      028D4AH     LINE      ---       ---     ---   #645
      028D4AH     LINE      ---       ---     ---   #647
      028D64H     LINE      ---       ---     ---   #648
      ---         BLOCKEND  LVL=0     ---     ---   

      028D6AH     BLOCK     LVL=0     0022H   ---   IMDB_SendInsideDoseFeature
L166 LINKER/LOCATER V5.25                                                             12/14/2017  11:31:13  PAGE 36


      028D6CH     BLOCK     LVL=1     001CH   ---   
      000000H     SYMBOL    AUTO      ---     ---   currentFeature
      ---         BLOCKEND  LVL=1     ---     ---   
      028D6AH     LINE      ---       ---     ---   #653
      028D6CH     LINE      ---       ---     ---   #654
      028D6CH     LINE      ---       ---     ---   #655
      028D72H     LINE      ---       ---     ---   #657
      028D88H     LINE      ---       ---     ---   #658
      ---         BLOCKEND  LVL=0     ---     ---   

      028D8CH     BLOCK     LVL=0     0026H   ---   IMDB_SendOutsideDoseFeature
      028D8EH     BLOCK     LVL=1     0020H   ---   
      000000H     SYMBOL    AUTO      ---     ---   currentFeature
      ---         BLOCKEND  LVL=1     ---     ---   
      028D8CH     LINE      ---       ---     ---   #659
      028D8EH     LINE      ---       ---     ---   #660
      028D8EH     LINE      ---       ---     ---   #661
      028D94H     LINE      ---       ---     ---   #663
      028DAEH     LINE      ---       ---     ---   #664
      ---         BLOCKEND  LVL=0     ---     ---   

      028DB2H     BLOCK     LVL=0     0070H   ---   IMDB_SendMaxAngle
      028DB4H     BLOCK     LVL=1     006AH   ---   
      000000H     SYMBOL    AUTO      ---     ---   maxAngle
      ---         BLOCKEND  LVL=1     ---     ---   
      028DB2H     LINE      ---       ---     ---   #665
      028DB4H     LINE      ---       ---     ---   #666
      028DB4H     LINE      ---       ---     ---   #667
      028DBCH     LINE      ---       ---     ---   #669
      028DC4H     LINE      ---       ---     ---   #670
      028DD8H     LINE      ---       ---     ---   #671
      028DE0H     LINE      ---       ---     ---   #672
      028DF4H     LINE      ---       ---     ---   #674
      028E02H     LINE      ---       ---     ---   #675
      028E04H     LINE      ---       ---     ---   #676
      028E04H     LINE      ---       ---     ---   #678
      028E1EH     LINE      ---       ---     ---   #679
      ---         BLOCKEND  LVL=0     ---     ---   

      028E22H     BLOCK     LVL=0     001CH   ---   IMDB_SendDoseExceeded
      000000H     SYMBOL    AUTO      ---     ---   Number
      028E22H     LINE      ---       ---     ---   #680
      028E24H     LINE      ---       ---     ---   #682
      028E3AH     LINE      ---       ---     ---   #683
      ---         BLOCKEND  LVL=0     ---     ---   

      028E3EH     BLOCK     LVL=0     001CH   ---   IMDB_SendDoseRateExceeded
      000000H     SYMBOL    AUTO      ---     ---   Number
      028E3EH     LINE      ---       ---     ---   #684
      028E40H     LINE      ---       ---     ---   #686
      028E56H     LINE      ---       ---     ---   #688
      ---         BLOCKEND  LVL=0     ---     ---   

      028E5AH     BLOCK     LVL=0     001CH   ---   IMDB_SendNuclideDetection
      000000H     SYMBOL    AUTO      ---     ---   State
      028E5AH     LINE      ---       ---     ---   #689
      028E5CH     LINE      ---       ---     ---   #691
L166 LINKER/LOCATER V5.25                                                             12/14/2017  11:31:13  PAGE 37


      028E72H     LINE      ---       ---     ---   #692
      ---         BLOCKEND  LVL=0     ---     ---   

      028E76H     BLOCK     LVL=0     001CH   ---   IMDB_SendNuclideIdentification
      000000H     SYMBOL    AUTO      ---     ---   Nuclide
      028E76H     LINE      ---       ---     ---   #693
      028E78H     LINE      ---       ---     ---   #695
      028E8EH     LINE      ---       ---     ---   #696
      ---         BLOCKEND  LVL=0     ---     ---   

      028E92H     BLOCK     LVL=0     001CH   ---   IMDB_SendCanTransmitError
      000000H     SYMBOL    AUTO      ---     ---   erNum
      028E92H     LINE      ---       ---     ---   #698
      028E94H     LINE      ---       ---     ---   #700
      028EAAH     LINE      ---       ---     ---   #701
      ---         BLOCKEND  LVL=0     ---     ---   

      028EAEH     BLOCK     LVL=0     0030H   ---   IMDB_SendMeasureInPointSuccess
      028EB2H     BLOCK     LVL=1     0026H   ---   
      000000H     SYMBOL    AUTO      ---     ---   CurrentSpecModeData
      ---         BLOCKEND  LVL=1     ---     ---   
      028EAEH     LINE      ---       ---     ---   #702
      028EB2H     LINE      ---       ---     ---   #703
      028EB2H     LINE      ---       ---     ---   #704
      028EC2H     LINE      ---       ---     ---   #706
      028ED8H     LINE      ---       ---     ---   #707
      ---         BLOCKEND  LVL=0     ---     ---   

      028EDEH     BLOCK     LVL=0     006EH   ---   IMDB_SendPacket
      000048H     SYMBOL    REG       ---     ---   cmd
      000002H     SYMBOL    REG       ---     ---   pData
      000006H     SYMBOL    REG       ---     ---   dataSize
      028EECH     BLOCK     LVL=1     0056H   ---   
      000000H     SYMBOL    AUTO      ---     ---   packSize
      00004DH     SYMBOL    REG       ---     ---   i
      00000EH     SYMBOL    REG       ---     ---   pPackage
      ---         BLOCKEND  LVL=1     ---     ---   
      028EDEH     LINE      ---       ---     ---   #709
      028EECH     LINE      ---       ---     ---   #710
      028EECH     LINE      ---       ---     ---   #711
      028EF2H     LINE      ---       ---     ---   #712
      028F10H     LINE      ---       ---     ---   #714
      028F14H     LINE      ---       ---     ---   #716
      028F18H     LINE      ---       ---     ---   #717
      028F3AH     LINE      ---       ---     ---   #719
      028F42H     LINE      ---       ---     ---   #720
      ---         BLOCKEND  LVL=0     ---     ---   

      028F4CH     BLOCK     LVL=0     00C0H   ---   IMDB_SendAngularDistribution
      028F50H     BLOCK     LVL=1     00B6H   ---   
      00000EH     SYMBOL    REG       ---     ---   fpData
      ---         BLOCKEND  LVL=1     ---     ---   
      028F4CH     LINE      ---       ---     ---   #725
      028F50H     LINE      ---       ---     ---   #726
      028F50H     LINE      ---       ---     ---   #730
      028F58H     LINE      ---       ---     ---   #733
      028F60H     LINE      ---       ---     ---   #736
L166 LINKER/LOCATER V5.25                                                             12/14/2017  11:31:13  PAGE 38


      028F68H     LINE      ---       ---     ---   #738
      028F70H     LINE      ---       ---     ---   #740
      028F80H     LINE      ---       ---     ---   #741
      028F82H     LINE      ---       ---     ---   #743
      028F90H     LINE      ---       ---     ---   #744
      028F92H     LINE      ---       ---     ---   #746
      028FA0H     LINE      ---       ---     ---   #747
      028FA2H     LINE      ---       ---     ---   #749
      028FAAH     LINE      ---       ---     ---   #751
      028FB2H     LINE      ---       ---     ---   #752
      028FBAH     LINE      ---       ---     ---   #754
      028FC2H     LINE      ---       ---     ---   #755
      028FC6H     LINE      ---       ---     ---   #756
      028FD8H     LINE      ---       ---     ---   #758
      028FE6H     LINE      ---       ---     ---   #759
      028FE8H     LINE      ---       ---     ---   #761
      028FF6H     LINE      ---       ---     ---   #762
      028FF8H     LINE      ---       ---     ---   #764
      029006H     LINE      ---       ---     ---   #767
      ---         BLOCKEND  LVL=0     ---     ---   

      02900CH     BLOCK     LVL=0     001CH   ---   IMDB_SendAccumSpectrSuccess
      000000H     SYMBOL    AUTO      ---     ---   Channel
      02900CH     LINE      ---       ---     ---   #768
      02900EH     LINE      ---       ---     ---   #770
      029024H     LINE      ---       ---     ---   #771
      ---         BLOCKEND  LVL=0     ---     ---   

      029028H     BLOCK     LVL=0     001CH   ---   IMDB_SendCalibrationState
      000000H     SYMBOL    AUTO      ---     ---   Status
      029028H     LINE      ---       ---     ---   #772
      02902AH     LINE      ---       ---     ---   #774
      029040H     LINE      ---       ---     ---   #775
      ---         BLOCKEND  LVL=0     ---     ---   

      029044H     BLOCK     LVL=0     02AEH   ---   IMDB_Process
      02904CH     BLOCK     LVL=1     029CH   ---   
      00004EH     SYMBOL    REG       ---     ---   i
      000000H     SYMBOL    AUTO      ---     ---   BDMGReady
      00004FH     SYMBOL    REG       ---     ---   BDGPReady
      00004DH     SYMBOL    REG       ---     ---   BDSPReady
      ---         BLOCKEND  LVL=1     ---     ---   
      029044H     LINE      ---       ---     ---   #777
      02904CH     LINE      ---       ---     ---   #778
      02904CH     LINE      ---       ---     ---   #780
      02904EH     LINE      ---       ---     ---   #781
      029054H     LINE      ---       ---     ---   #782
      02905AH     LINE      ---       ---     ---   #783
      029060H     LINE      ---       ---     ---   #784
      029064H     LINE      ---       ---     ---   #785
      029066H     LINE      ---       ---     ---   #788
      02906AH     LINE      ---       ---     ---   #790
      029074H     LINE      ---       ---     ---   #791
      029078H     LINE      ---       ---     ---   #792
      029080H     LINE      ---       ---     ---   #793
      029080H     LINE      ---       ---     ---   #795
      02908AH     LINE      ---       ---     ---   #796
L166 LINKER/LOCATER V5.25                                                             12/14/2017  11:31:13  PAGE 39


      02908EH     LINE      ---       ---     ---   #797
      029096H     LINE      ---       ---     ---   #798
      029096H     LINE      ---       ---     ---   #800
      0290A0H     LINE      ---       ---     ---   #801
      0290A4H     LINE      ---       ---     ---   #802
      0290ACH     LINE      ---       ---     ---   #803
      0290ACH     LINE      ---       ---     ---   #805
      0290B6H     LINE      ---       ---     ---   #806
      0290BAH     LINE      ---       ---     ---   #807
      0290C2H     LINE      ---       ---     ---   #808
      0290C2H     LINE      ---       ---     ---   #810
      0290CCH     LINE      ---       ---     ---   #811
      0290D0H     LINE      ---       ---     ---   #812
      0290D8H     LINE      ---       ---     ---   #813
      0290D8H     LINE      ---       ---     ---   #815
      0290E2H     LINE      ---       ---     ---   #816
      0290E6H     LINE      ---       ---     ---   #817
      0290EEH     LINE      ---       ---     ---   #818
      0290EEH     LINE      ---       ---     ---   #820
      0290F8H     LINE      ---       ---     ---   #821
      0290FCH     LINE      ---       ---     ---   #822
      029104H     LINE      ---       ---     ---   #823
      029104H     LINE      ---       ---     ---   #825
      02910EH     LINE      ---       ---     ---   #826
      029112H     LINE      ---       ---     ---   #827
      02911AH     LINE      ---       ---     ---   #828
      02911AH     LINE      ---       ---     ---   #830
      029124H     LINE      ---       ---     ---   #831
      029128H     LINE      ---       ---     ---   #832
      029128H     LINE      ---       ---     ---   #834
      029132H     LINE      ---       ---     ---   #835
      029146H     LINE      ---       ---     ---   #837
      02914EH     LINE      ---       ---     ---   #838
      02914EH     LINE      ---       ---     ---   #841
      029158H     LINE      ---       ---     ---   #842
      02915CH     LINE      ---       ---     ---   #843
      029164H     LINE      ---       ---     ---   #844
      029164H     LINE      ---       ---     ---   #845
      02916EH     LINE      ---       ---     ---   #846
      029172H     LINE      ---       ---     ---   #847
      02917AH     LINE      ---       ---     ---   #848
      02917AH     LINE      ---       ---     ---   #852
      0291C4H     LINE      ---       ---     ---   #856
      0291C8H     LINE      ---       ---     ---   #857
      0291CCH     LINE      ---       ---     ---   #858
      0291CCH     LINE      ---       ---     ---   #862
      029216H     LINE      ---       ---     ---   #866
      029224H     LINE      ---       ---     ---   #867
      029228H     LINE      ---       ---     ---   #868
      029228H     LINE      ---       ---     ---   #874
      029232H     LINE      ---       ---     ---   #875
      029238H     LINE      ---       ---     ---   #876
      029240H     LINE      ---       ---     ---   #877
      029240H     LINE      ---       ---     ---   #879
      02924AH     LINE      ---       ---     ---   #880
      029250H     LINE      ---       ---     ---   #881
      029258H     LINE      ---       ---     ---   #882
L166 LINKER/LOCATER V5.25                                                             12/14/2017  11:31:13  PAGE 40


      029258H     LINE      ---       ---     ---   #884
      029262H     LINE      ---       ---     ---   #885
      02926EH     LINE      ---       ---     ---   #886
      029276H     LINE      ---       ---     ---   #887
      029276H     LINE      ---       ---     ---   #889
      029280H     LINE      ---       ---     ---   #890
      029286H     LINE      ---       ---     ---   #891
      02928EH     LINE      ---       ---     ---   #892
      02928EH     LINE      ---       ---     ---   #894
      029298H     LINE      ---       ---     ---   #895
      02929CH     LINE      ---       ---     ---   #896
      0292A4H     LINE      ---       ---     ---   #897
      0292A4H     LINE      ---       ---     ---   #899
      0292A6H     LINE      ---       ---     ---   #901
      0292BEH     LINE      ---       ---     ---   #902
      0292C6H     LINE      ---       ---     ---   #903
      0292DEH     LINE      ---       ---     ---   #904
      0292E0H     LINE      ---       ---     ---   #905
      0292E8H     LINE      ---       ---     ---   #909
      ---         BLOCKEND  LVL=0     ---     ---   

      0292F2H     BLOCK     LVL=0     0032H   ---   IMDB_ResetAllBDSignalCallback
      0292F2H     LINE      ---       ---     ---   #915
      0292F2H     LINE      ---       ---     ---   #917
      0292FAH     LINE      ---       ---     ---   #918
      029302H     LINE      ---       ---     ---   #919
      02930AH     LINE      ---       ---     ---   #921
      029312H     LINE      ---       ---     ---   #922
      02931AH     LINE      ---       ---     ---   #923
      029322H     LINE      ---       ---     ---   #924
      ---         BLOCKEND  LVL=0     ---     ---   

      029324H     BLOCK     LVL=0     000CH   ---   IMDB_BDMGGetParametrsSignalCallback
      029324H     LINE      ---       ---     ---   #926
      029324H     LINE      ---       ---     ---   #928
      02932EH     LINE      ---       ---     ---   #929
      ---         BLOCKEND  LVL=0     ---     ---   

      029330H     BLOCK     LVL=0     000CH   ---   IMDB_BDGPGetParametrsSignalCallback
      029330H     LINE      ---       ---     ---   #931
      029330H     LINE      ---       ---     ---   #933
      02933AH     LINE      ---       ---     ---   #934
      ---         BLOCKEND  LVL=0     ---     ---   

      02933CH     BLOCK     LVL=0     000CH   ---   IMDB_BDPSGetParametrsSignalCallback
      02933CH     LINE      ---       ---     ---   #936
      02933CH     LINE      ---       ---     ---   #938
      029346H     LINE      ---       ---     ---   #939
      ---         BLOCKEND  LVL=0     ---     ---   

      029348H     BLOCK     LVL=0     000CH   ---   IMDB_BDPSWriteParametrsSignalCallback
      029348H     LINE      ---       ---     ---   #941
      029348H     LINE      ---       ---     ---   #943
      029352H     LINE      ---       ---     ---   #944
      ---         BLOCKEND  LVL=0     ---     ---   

      029354H     BLOCK     LVL=0     000CH   ---   IMDB_BDGPWriteParametrsSignalCallback
L166 LINKER/LOCATER V5.25                                                             12/14/2017  11:31:13  PAGE 41


      029354H     LINE      ---       ---     ---   #946
      029354H     LINE      ---       ---     ---   #948
      02935EH     LINE      ---       ---     ---   #949
      ---         BLOCKEND  LVL=0     ---     ---   

      029360H     BLOCK     LVL=0     000CH   ---   IMDB_BDMGWriteParametrsSignalCallback
      029360H     LINE      ---       ---     ---   #951
      029360H     LINE      ---       ---     ---   #953
      02936AH     LINE      ---       ---     ---   #954
      ---         BLOCKEND  LVL=0     ---     ---   

      02936CH     BLOCK     LVL=0     000CH   ---   IMDB_NuclideDetectionSignalCallback
      02936CH     LINE      ---       ---     ---   #956
      02936CH     LINE      ---       ---     ---   #958
      029376H     LINE      ---       ---     ---   #959
      ---         BLOCKEND  LVL=0     ---     ---   

      029378H     BLOCK     LVL=0     000CH   ---   IMDB_NuclideEndDetectionSignalCallback
      029378H     LINE      ---       ---     ---   #960
      029378H     LINE      ---       ---     ---   #962
      029382H     LINE      ---       ---     ---   #963
      ---         BLOCKEND  LVL=0     ---     ---   

      029384H     BLOCK     LVL=0     001AH   ---   IMDB_SendAccumSpectrSuccessSignalCallback
      000048H     SYMBOL    REG       ---     ---   Channel
      029384H     LINE      ---       ---     ---   #964
      029384H     LINE      ---       ---     ---   #966
      02939CH     LINE      ---       ---     ---   #967
      ---         BLOCKEND  LVL=0     ---     ---   

      02939EH     BLOCK     LVL=0     0016H   ---   IMDB_NuclideIdentificationSignalCallback
      000048H     SYMBOL    REG       ---     ---   Nuclide
      02939EH     LINE      ---       ---     ---   #968
      02939EH     LINE      ---       ---     ---   #970
      0293A8H     LINE      ---       ---     ---   #971
      0293B2H     LINE      ---       ---     ---   #972
      ---         BLOCKEND  LVL=0     ---     ---   

      0293B4H     BLOCK     LVL=0     000CH   ---   IMDB_NuclideIdentificationEndSignalCallback
      0293B4H     LINE      ---       ---     ---   #973
      0293B4H     LINE      ---       ---     ---   #975
      0293BEH     LINE      ---       ---     ---   #976
      ---         BLOCKEND  LVL=0     ---     ---   

      0293C0H     BLOCK     LVL=0     000CH   ---   IMDB_SendMeasureInPointEndSignalCallback
      0293C0H     LINE      ---       ---     ---   #978
      0293C0H     LINE      ---       ---     ---   #980
      0293CAH     LINE      ---       ---     ---   #981
      ---         BLOCKEND  LVL=0     ---     ---   

      0293CCH     BLOCK     LVL=0     0034H   ---   IMDB_Metrology_AllBDParametrRequest
      0293CCH     LINE      ---       ---     ---   #988
      0293CCH     LINE      ---       ---     ---   #995
      0293D4H     LINE      ---       ---     ---   #996
      0293DEH     LINE      ---       ---     ---   #997
      0293DEH     LINE      ---       ---     ---   #998
      0293E6H     LINE      ---       ---     ---   #999
L166 LINKER/LOCATER V5.25                                                             12/14/2017  11:31:13  PAGE 42


      0293F2H     LINE      ---       ---     ---   #1000
      0293F2H     LINE      ---       ---     ---   #1002
      0293FAH     LINE      ---       ---     ---   #1004
      0293FEH     LINE      ---       ---     ---   #1005
      ---         BLOCKEND  LVL=0     ---     ---   

      029400H     BLOCK     LVL=0     003CH   ---   IMDB_Metrology_AllBDWriteParametr
      029400H     LINE      ---       ---     ---   #1007
      029400H     LINE      ---       ---     ---   #1010
      029408H     LINE      ---       ---     ---   #1011
      02940CH     LINE      ---       ---     ---   #1013
      029416H     LINE      ---       ---     ---   #1014
      029416H     LINE      ---       ---     ---   #1015
      02941EH     LINE      ---       ---     ---   #1016
      029424H     LINE      ---       ---     ---   #1017
      02942EH     LINE      ---       ---     ---   #1018
      02942EH     LINE      ---       ---     ---   #1020
      029436H     LINE      ---       ---     ---   #1022
      02943AH     LINE      ---       ---     ---   #1024
      ---         BLOCKEND  LVL=0     ---     ---   

      02943CH     BLOCK     LVL=0     00ACH   ---   IMDB_Metrology_SendBDParametrs
      029444H     BLOCK     LVL=1     009AH   ---   
      000000H     SYMBOL    AUTO      ---     ---   sizeBDMGParam
      00000DH     SYMBOL    REG       ---     ---   sizeBDGPParam
      000002H     SYMBOL    AUTO      ---     ---   sizeBDSPParam
      00000EH     SYMBOL    REG       ---     ---   pParamPack
      000004H     SYMBOL    AUTO      ---     ---   PackSize
      ---         BLOCKEND  LVL=1     ---     ---   
      02943CH     LINE      ---       ---     ---   #1027
      029444H     LINE      ---       ---     ---   #1028
      029444H     LINE      ---       ---     ---   #1031
      02944AH     LINE      ---       ---     ---   #1032
      02944EH     LINE      ---       ---     ---   #1033
      029456H     LINE      ---       ---     ---   #1036
      02945EH     LINE      ---       ---     ---   #1038
      02946AH     LINE      ---       ---     ---   #1040
      02946EH     LINE      ---       ---     ---   #1041
      029482H     LINE      ---       ---     ---   #1042
      02949EH     LINE      ---       ---     ---   #1043
      0294C6H     LINE      ---       ---     ---   #1045
      0294D6H     LINE      ---       ---     ---   #1048
      0294DEH     LINE      ---       ---     ---   #1049
      ---         BLOCKEND  LVL=0     ---     ---   

      0294E8H     BLOCK     LVL=0     0096H   ---   IMDB_Metrology_WriteBDParametrs
      00000EH     SYMBOL    REG       ---     ---   pData
      0294F4H     BLOCK     LVL=1     0080H   ---   
      000000H     SYMBOL    AUTO      ---     ---   sizeBDMGParam
      00000DH     SYMBOL    REG       ---     ---   sizeBDGPParam
      000002H     SYMBOL    AUTO      ---     ---   sizeBDSPParam
      ---         BLOCKEND  LVL=1     ---     ---   
      0294E8H     LINE      ---       ---     ---   #1054
      0294F4H     LINE      ---       ---     ---   #1055
      0294F4H     LINE      ---       ---     ---   #1056
      0294FAH     LINE      ---       ---     ---   #1057
      0294FEH     LINE      ---       ---     ---   #1058
L166 LINKER/LOCATER V5.25                                                             12/14/2017  11:31:13  PAGE 43


      029506H     LINE      ---       ---     ---   #1060
      02950CH     LINE      ---       ---     ---   #1062
      029520H     LINE      ---       ---     ---   #1063
      02953CH     LINE      ---       ---     ---   #1064
      029564H     LINE      ---       ---     ---   #1065
      029566H     LINE      ---       ---     ---   #1067
      029574H     LINE      ---       ---     ---   #1069
      ---         BLOCKEND  LVL=0     ---     ---   

      02957EH     BLOCK     LVL=0     0018H   ---   IMDB_Metrology_DefaultSettings
      02957EH     LINE      ---       ---     ---   #1070
      02957EH     LINE      ---       ---     ---   #1072
      029582H     LINE      ---       ---     ---   #1073
      029590H     LINE      ---       ---     ---   #1075
      029594H     LINE      ---       ---     ---   #1076
      ---         BLOCKEND  LVL=0     ---     ---   

      029596H     BLOCK     LVL=0     0016H   ---   IMDB_Metrology_ReadBSParametrs
      029596H     LINE      ---       ---     ---   #1078
      029596H     LINE      ---       ---     ---   #1080
      0295AAH     LINE      ---       ---     ---   #1081
      ---         BLOCKEND  LVL=0     ---     ---   

      0295ACH     BLOCK     LVL=0     003EH   ---   IMDB_Metrology_WriteBSParametrs
      000008H     SYMBOL    REG       ---     ---   pData
      0295ACH     LINE      ---       ---     ---   #1082
      0295ACH     LINE      ---       ---     ---   #1083
      0295ACH     LINE      ---       ---     ---   #1084
      0295ACH     LINE      ---       ---     ---   #1086
      0295B2H     LINE      ---       ---     ---   #1088
      0295C6H     LINE      ---       ---     ---   #1091
      0295CAH     LINE      ---       ---     ---   #1092
      0295D8H     LINE      ---       ---     ---   #1093
      0295DAH     LINE      ---       ---     ---   #1095
      0295E8H     LINE      ---       ---     ---   #1096
      ---         BLOCKEND  LVL=0     ---     ---   

      0295EAH     BLOCK     LVL=0     0010H   ---   IMDB_SendError
      0295EAH     LINE      ---       ---     ---   #1097
      0295EAH     LINE      ---       ---     ---   #1099
      0295F8H     LINE      ---       ---     ---   #1100
      ---         BLOCKEND  LVL=0     ---     ---   

      0295FAH     BLOCK     LVL=0     004EH   ---   IMDB_SendStartMeasureInPoint
      000000H     SYMBOL    AUTO      ---     ---   PointNumber
      0295FAH     LINE      ---       ---     ---   #1101
      0295FCH     LINE      ---       ---     ---   #1103
      029604H     LINE      ---       ---     ---   #1105
      02960EH     LINE      ---       ---     ---   #1106
      029614H     LINE      ---       ---     ---   #1107
      02961CH     LINE      ---       ---     ---   #1108
      029622H     LINE      ---       ---     ---   #1110
      029638H     LINE      ---       ---     ---   #1111
      02963AH     LINE      ---       ---     ---   #1113
      02963EH     LINE      ---       ---     ---   #1114
      029640H     LINE      ---       ---     ---   #1116
      029644H     LINE      ---       ---     ---   #1117
L166 LINKER/LOCATER V5.25                                                             12/14/2017  11:31:13  PAGE 44


      ---         BLOCKEND  LVL=0     ---     ---   

      029648H     BLOCK     LVL=0     0090H   ---   IMDB_Metrology_StartBD
      000008H     SYMBOL    REG       ---     ---   pData
      02964AH     BLOCK     LVL=1     008AH   ---   
      000000H     SYMBOL    AUTO      ---     ---   bdIndex
      ---         BLOCKEND  LVL=1     ---     ---   
      029648H     LINE      ---       ---     ---   #1119
      02964AH     LINE      ---       ---     ---   #1120
      02964AH     LINE      ---       ---     ---   #1131
      029650H     LINE      ---       ---     ---   #1133
      02965AH     LINE      ---       ---     ---   #1135
      02965EH     LINE      ---       ---     ---   #1137
      029668H     LINE      ---       ---     ---   #1139
      029670H     LINE      ---       ---     ---   #1141
      029686H     LINE      ---       ---     ---   #1143
      02968CH     LINE      ---       ---     ---   #1144
      029694H     LINE      ---       ---     ---   #1145
      02969CH     LINE      ---       ---     ---   #1146
      0296A4H     LINE      ---       ---     ---   #1147
      0296ACH     LINE      ---       ---     ---   #1148
      0296B2H     LINE      ---       ---     ---   #1150
      0296B2H     LINE      ---       ---     ---   #1154
      0296C8H     LINE      ---       ---     ---   #1155
      0296CAH     LINE      ---       ---     ---   #1157
      0296CEH     LINE      ---       ---     ---   #1158
      0296D0H     LINE      ---       ---     ---   #1160
      0296D4H     LINE      ---       ---     ---   #1162
      ---         BLOCKEND  LVL=0     ---     ---   

      0296D8H     BLOCK     LVL=0     00C0H   ---   IMDB_Metrology_GetBDData
      0296D8H     LINE      ---       ---     ---   #1163
      0296D8H     LINE      ---       ---     ---   #1165
      0296E4H     LINE      ---       ---     ---   #1168
      0296ECH     LINE      ---       ---     ---   #1170
      0296FCH     LINE      ---       ---     ---   #1171
      029714H     LINE      ---       ---     ---   #1172
      029714H     LINE      ---       ---     ---   #1173
      029724H     LINE      ---       ---     ---   #1175
      029728H     LINE      ---       ---     ---   #1176
      029738H     LINE      ---       ---     ---   #1177
      029750H     LINE      ---       ---     ---   #1178
      029750H     LINE      ---       ---     ---   #1179
      029764H     LINE      ---       ---     ---   #1181
      029774H     LINE      ---       ---     ---   #1182
      029784H     LINE      ---       ---     ---   #1183
      029784H     LINE      ---       ---     ---   #1187
      029796H     LINE      ---       ---     ---   #1189
      ---         BLOCKEND  LVL=0     ---     ---   

      029798H     BLOCK     LVL=0     00B4H   ---   IMDB_Metrology_SpectrometryMode
      00000EH     SYMBOL    REG       ---     ---   pData
      029798H     LINE      ---       ---     ---   #1190
      0297A0H     LINE      ---       ---     ---   #1195
      0297B0H     LINE      ---       ---     ---   #1197
      0297B0H     LINE      ---       ---     ---   #1200
      0297B6H     LINE      ---       ---     ---   #1202
L166 LINKER/LOCATER V5.25                                                             12/14/2017  11:31:13  PAGE 45


      0297BEH     LINE      ---       ---     ---   #1204
      0297CCH     LINE      ---       ---     ---   #1205
      0297CEH     LINE      ---       ---     ---   #1207
      0297CEH     LINE      ---       ---     ---   #1208
      0297D4H     LINE      ---       ---     ---   #1209
      0297DEH     LINE      ---       ---     ---   #1210
      0297E6H     LINE      ---       ---     ---   #1212
      0297F4H     LINE      ---       ---     ---   #1213
      0297F6H     LINE      ---       ---     ---   #1215
      0297F6H     LINE      ---       ---     ---   #1216
      0297FCH     LINE      ---       ---     ---   #1217
      029804H     LINE      ---       ---     ---   #1219
      02982CH     LINE      ---       ---     ---   #1220
      029832H     LINE      ---       ---     ---   #1222
      029840H     LINE      ---       ---     ---   #1223
      029842H     LINE      ---       ---     ---   #1225
      029846H     LINE      ---       ---     ---   #1226
      029846H     LINE      ---       ---     ---   #1227
      ---         BLOCKEND  LVL=0     ---     ---   

      02984CH     BLOCK     LVL=0     00C0H   ---   IMDB_Metrology_SendCurrentSpectrData
      02984EH     BLOCK     LVL=1     00BAH   ---   
      00000DH     SYMBOL    REG       ---     ---   spectrIndex
      ---         BLOCKEND  LVL=1     ---     ---   
      02984CH     LINE      ---       ---     ---   #1229
      02984EH     LINE      ---       ---     ---   #1230
      02984EH     LINE      ---       ---     ---   #1232
      029850H     LINE      ---       ---     ---   #1235
      02985AH     LINE      ---       ---     ---   #1236
      02985AH     LINE      ---       ---     ---   #1238
      029862H     LINE      ---       ---     ---   #1248
      02987CH     LINE      ---       ---     ---   #1249
      029896H     LINE      ---       ---     ---   #1250
      0298B0H     LINE      ---       ---     ---   #1251
      0298CAH     LINE      ---       ---     ---   #1254
      0298CCH     LINE      ---       ---     ---   #1256
      0298CCH     LINE      ---       ---     ---   #1258
      0298F2H     LINE      ---       ---     ---   #1260
      0298F4H     LINE      ---       ---     ---   #1262
      0298F8H     LINE      ---       ---     ---   #1263
      0298FEH     LINE      ---       ---     ---   #1268
      029908H     LINE      ---       ---     ---   #1270
      ---         BLOCKEND  LVL=0     ---     ---   

      02990CH     BLOCK     LVL=0     0112H   ---   IMDB_Metrology_SendAccumSpectrBlockData
      00000EH     SYMBOL    REG       ---     ---   pData
      02991AH     BLOCK     LVL=1     00F8H   ---   
      000000H     SYMBOL    AUTO      ---     ---   pSendData
      00008EH     SYMBOL    REG       ---     ---   Channel
      000004H     SYMBOL    AUTO      ---     ---   Start
      00000DH     SYMBOL    REG       ---     ---   Count
      029986H     BLOCK     LVL=2     0074H   ---   
      000006H     SYMBOL    AUTO      ---     ---   pSpectrData
      ---         BLOCKEND  LVL=2     ---     ---   
      ---         BLOCKEND  LVL=1     ---     ---   
      02990CH     LINE      ---       ---     ---   #1271
      02991AH     LINE      ---       ---     ---   #1272
L166 LINKER/LOCATER V5.25                                                             12/14/2017  11:31:13  PAGE 46


      02991AH     LINE      ---       ---     ---   #1273
      02991AH     LINE      ---       ---     ---   #1276
      02991EH     LINE      ---       ---     ---   #1278
      029942H     LINE      ---       ---     ---   #1279
      029962H     LINE      ---       ---     ---   #1282
      02996AH     LINE      ---       ---     ---   #1283
      029974H     LINE      ---       ---     ---   #1284
      02997EH     LINE      ---       ---     ---   #1285
      029986H     LINE      ---       ---     ---   #1286
      029994H     LINE      ---       ---     ---   #1288
      0299A4H     LINE      ---       ---     ---   #1290
      0299B2H     LINE      ---       ---     ---   #1291
      0299DCH     LINE      ---       ---     ---   #1295
      0299F0H     LINE      ---       ---     ---   #1297
      0299FAH     LINE      ---       ---     ---   #1299
      0299FCH     LINE      ---       ---     ---   #1301
      029A00H     LINE      ---       ---     ---   #1302
      029A02H     LINE      ---       ---     ---   #1304
      029A06H     LINE      ---       ---     ---   #1305
      029A08H     LINE      ---       ---     ---   #1307
      029A0CH     LINE      ---       ---     ---   #1308
      029A0EH     LINE      ---       ---     ---   #1310
      029A12H     LINE      ---       ---     ---   #1311
      ---         BLOCKEND  LVL=0     ---     ---   

      029A1EH     BLOCK     LVL=0     003EH   ---   IMDB_DEBUG_SendDataMsg
      000008H     SYMBOL    REG       ---     ---   pData
      00004AH     SYMBOL    REG       ---     ---   Index
      00004BH     SYMBOL    REG       ---     ---   DataType
      029A20H     BLOCK     LVL=1     0038H   ---   
      000000H     SYMBOL    AUTO      ---     ---   pSendData
      ---         BLOCKEND  LVL=1     ---     ---   
      029A1EH     LINE      ---       ---     ---   #1318
      029A20H     LINE      ---       ---     ---   #1319
      029A20H     LINE      ---       ---     ---   #1323
      029A24H     LINE      ---       ---     ---   #1324
      029A2AH     LINE      ---       ---     ---   #1326
      029A42H     LINE      ---       ---     ---   #1328
      029A58H     LINE      ---       ---     ---   #1330
      ---         BLOCKEND  LVL=0     ---     ---   
      02C7CCH     PUBLIC    LABEL     ---     ---   Devices_ReceiveMsgCallback
      02C7BEH     PUBLIC    LABEL     ---     ---   Devices_SendStateRequest

      02C7BEH     BLOCK     LVL=0     000EH   ---   Devices_SendStateRequest
      02C7BEH     LINE      ---       ---     ---   #21
      02C7BEH     LINE      ---       ---     ---   #24
      02C7C2H     LINE      ---       ---     ---   #25
      02C7C6H     LINE      ---       ---     ---   #26
      02C7CAH     LINE      ---       ---     ---   #27
      ---         BLOCKEND  LVL=0     ---     ---   

      02C7CCH     BLOCK     LVL=0     00BCH   ---   Devices_ReceiveMsgCallback
      000008H     SYMBOL    REG       ---     ---   id
      00000EH     SYMBOL    REG       ---     ---   msg
      02C7CCH     LINE      ---       ---     ---   #31
      02C7D4H     LINE      ---       ---     ---   #33
      02C806H     LINE      ---       ---     ---   #35
L166 LINKER/LOCATER V5.25                                                             12/14/2017  11:31:13  PAGE 47


      02C810H     LINE      ---       ---     ---   #36
      02C81AH     LINE      ---       ---     ---   #37
      02C824H     LINE      ---       ---     ---   #43
      02C830H     LINE      ---       ---     ---   #44
      02C83CH     LINE      ---       ---     ---   #45
      02C848H     LINE      ---       ---     ---   #46
      02C854H     LINE      ---       ---     ---   #50
      02C860H     LINE      ---       ---     ---   #51
      02C86CH     LINE      ---       ---     ---   #52
      02C878H     LINE      ---       ---     ---   #53
      02C882H     LINE      ---       ---     ---   #55
      02C882H     LINE      ---       ---     ---   #56
      ---         BLOCKEND  LVL=0     ---     ---   
      02A15CH     PUBLIC    LABEL     ---     ---   CAN_Interrupt11
      02A0DAH     PUBLIC    LABEL     ---     ---   CAN_Interrupt10
      02A1E8H     PUBLIC    LABEL     ---     ---   CAN_Init
      02A058H     PUBLIC    LABEL     ---     ---   CAN_Interrupt9
      029FD6H     PUBLIC    LABEL     ---     ---   CAN_Interrupt8
      029F50H     PUBLIC    LABEL     ---     ---   CAN_Interrupt7
      029DC0H     PUBLIC    LABEL     ---     ---   CAN_Interrupt6
      029D34H     PUBLIC    LABEL     ---     ---   CAN_Interrupt5
      029CA8H     PUBLIC    LABEL     ---     ---   CAN_Interrupt4
      029C28H     PUBLIC    LABEL     ---     ---   CAN_Interrupt3
      029BA8H     PUBLIC    LABEL     ---     ---   CAN_Interrupt2
      029B28H     PUBLIC    LABEL     ---     ---   CAN_Interrupt1
      029A5CH     PUBLIC    LABEL     ---     ---   CAN_Interrupt0
      02A84CH     PUBLIC    LABEL     ---     ---   CAN_SendMessageIT
      02A788H     PUBLIC    LABEL     ---     ---   CAN_SendDefferedMessage
      02A6A4H     PUBLIC    LABEL     ---     ---   CAN_Process
      02A6CAH     PUBLIC    LABEL     ---     ---   CAN_SendMessage
      05052CH     SYMBOL    VAR       ---     ---   defferedCounter
      05052EH     SYMBOL    VAR       ---     ---   txEnable
      6237ECH     SYMBOL    VAR       ---     ---   canQuery

      029A5CH     BLOCK     LVL=0     00CCH   ---   CAN_Interrupt0
      029A5CH     LINE      ---       ---     ---   #36
      029A82H     LINE      ---       ---     ---   #37
      029A82H     LINE      ---       ---     ---   #38
      029A82H     LINE      ---       ---     ---   #40
      029A88H     LINE      ---       ---     ---   #42
      029A94H     LINE      ---       ---     ---   #43
      029AAAH     LINE      ---       ---     ---   #44
      029AB2H     LINE      ---       ---     ---   #45
      029AB2H     LINE      ---       ---     ---   #47
      029ACEH     LINE      ---       ---     ---   #49
      029AE6H     LINE      ---       ---     ---   #51
      029AF8H     LINE      ---       ---     ---   #53
      029AFCH     LINE      ---       ---     ---   #54
      029B04H     LINE      ---       ---     ---   #56
      029B04H     LINE      ---       ---     ---   #57
      ---         BLOCKEND  LVL=0     ---     ---   

      029B28H     BLOCK     LVL=0     0080H   ---   CAN_Interrupt1
      029B52H     BLOCK     LVL=1     002EH   ---   
      000000H     SYMBOL    AUTO      ---     ---   msgData
      ---         BLOCKEND  LVL=1     ---     ---   
      029B28H     LINE      ---       ---     ---   #59
L166 LINKER/LOCATER V5.25                                                             12/14/2017  11:31:13  PAGE 48


      029B52H     LINE      ---       ---     ---   #60
      029B52H     LINE      ---       ---     ---   #84
      029B58H     LINE      ---       ---     ---   #85
      029B60H     LINE      ---       ---     ---   #86
      029B68H     LINE      ---       ---     ---   #87
      029B70H     LINE      ---       ---     ---   #89
      029B80H     LINE      ---       ---     ---   #90
      ---         BLOCKEND  LVL=0     ---     ---   

      029BA8H     BLOCK     LVL=0     0080H   ---   CAN_Interrupt2
      029BD2H     BLOCK     LVL=1     002EH   ---   
      000000H     SYMBOL    AUTO      ---     ---   msgData
      ---         BLOCKEND  LVL=1     ---     ---   
      029BA8H     LINE      ---       ---     ---   #93
      029BD2H     LINE      ---       ---     ---   #94
      029BD2H     LINE      ---       ---     ---   #97
      029BD8H     LINE      ---       ---     ---   #98
      029BE0H     LINE      ---       ---     ---   #99
      029BE8H     LINE      ---       ---     ---   #100
      029BF0H     LINE      ---       ---     ---   #102
      029C00H     LINE      ---       ---     ---   #103
      ---         BLOCKEND  LVL=0     ---     ---   

      029C28H     BLOCK     LVL=0     0080H   ---   CAN_Interrupt3
      029C52H     BLOCK     LVL=1     002EH   ---   
      000000H     SYMBOL    AUTO      ---     ---   msgData
      ---         BLOCKEND  LVL=1     ---     ---   
      029C28H     LINE      ---       ---     ---   #105
      029C52H     LINE      ---       ---     ---   #106
      029C52H     LINE      ---       ---     ---   #109
      029C58H     LINE      ---       ---     ---   #110
      029C60H     LINE      ---       ---     ---   #111
      029C68H     LINE      ---       ---     ---   #112
      029C70H     LINE      ---       ---     ---   #114
      029C80H     LINE      ---       ---     ---   #115
      ---         BLOCKEND  LVL=0     ---     ---   

      029CA8H     BLOCK     LVL=0     008CH   ---   CAN_Interrupt4
      029CD2H     BLOCK     LVL=1     003AH   ---   
      000000H     SYMBOL    AUTO      ---     ---   msgData
      000005H     SYMBOL    REG       ---     ---   regID
      ---         BLOCKEND  LVL=1     ---     ---   
      029CA8H     LINE      ---       ---     ---   #117
      029CD2H     LINE      ---       ---     ---   #118
      029CD2H     LINE      ---       ---     ---   #120
      029CDCH     LINE      ---       ---     ---   #122
      029CE2H     LINE      ---       ---     ---   #123
      029CEAH     LINE      ---       ---     ---   #124
      029CF2H     LINE      ---       ---     ---   #125
      029CFAH     LINE      ---       ---     ---   #127
      029D0CH     LINE      ---       ---     ---   #128
      ---         BLOCKEND  LVL=0     ---     ---   

      029D34H     BLOCK     LVL=0     008CH   ---   CAN_Interrupt5
      029D5EH     BLOCK     LVL=1     003AH   ---   
      000000H     SYMBOL    AUTO      ---     ---   msgData
      000005H     SYMBOL    REG       ---     ---   regID
L166 LINKER/LOCATER V5.25                                                             12/14/2017  11:31:13  PAGE 49


      ---         BLOCKEND  LVL=1     ---     ---   
      029D34H     LINE      ---       ---     ---   #130
      029D5EH     LINE      ---       ---     ---   #131
      029D5EH     LINE      ---       ---     ---   #133
      029D68H     LINE      ---       ---     ---   #135
      029D6EH     LINE      ---       ---     ---   #136
      029D76H     LINE      ---       ---     ---   #137
      029D7EH     LINE      ---       ---     ---   #138
      029D86H     LINE      ---       ---     ---   #140
      029D98H     LINE      ---       ---     ---   #141
      ---         BLOCKEND  LVL=0     ---     ---   

      029DC0H     BLOCK     LVL=0     0190H   ---   CAN_Interrupt6
      029DF0H     BLOCK     LVL=1     0132H   ---   
      00000EH     SYMBOL    REG       ---     ---   pReprogWord
      000000H     SYMBOL    AUTO      ---     ---   serialNumber
      00000DH     SYMBOL    REG       ---     ---   regID
      000004H     SYMBOL    AUTO      ---     ---   msgData
      ---         BLOCKEND  LVL=1     ---     ---   
      029DC0H     LINE      ---       ---     ---   #143
      029DF0H     LINE      ---       ---     ---   #144
      029DF0H     LINE      ---       ---     ---   #148
      029DFAH     LINE      ---       ---     ---   #149
      029E00H     LINE      ---       ---     ---   #152
      029E0AH     LINE      ---       ---     ---   #155
      029E12H     LINE      ---       ---     ---   #156
      029E1AH     LINE      ---       ---     ---   #157
      029E22H     LINE      ---       ---     ---   #158
      029E2AH     LINE      ---       ---     ---   #161
      029E2EH     LINE      ---       ---     ---   #162
      029E76H     LINE      ---       ---     ---   #166
      029E92H     LINE      ---       ---     ---   #168
      029E98H     LINE      ---       ---     ---   #170
      029EAEH     LINE      ---       ---     ---   #181
      029EAEH     LINE      ---       ---     ---   #182
      029EC8H     LINE      ---       ---     ---   #183
      029EECH     LINE      ---       ---     ---   #186
      029F02H     LINE      ---       ---     ---   #188
      029F0AH     LINE      ---       ---     ---   #190
      029F0EH     LINE      ---       ---     ---   #191
      029F0EH     LINE      ---       ---     ---   #197
      029F0EH     LINE      ---       ---     ---   #199
      029F22H     LINE      ---       ---     ---   #200
      ---         BLOCKEND  LVL=0     ---     ---   

      029F50H     BLOCK     LVL=0     0086H   ---   CAN_Interrupt7
      029F7AH     BLOCK     LVL=1     0034H   ---   
      000000H     SYMBOL    AUTO      ---     ---   msgData
      ---         BLOCKEND  LVL=1     ---     ---   
      029F50H     LINE      ---       ---     ---   #202
      029F7AH     LINE      ---       ---     ---   #203
      029F7AH     LINE      ---       ---     ---   #204
      029F7EH     LINE      ---       ---     ---   #208
      029F84H     LINE      ---       ---     ---   #209
      029F8CH     LINE      ---       ---     ---   #210
      029F94H     LINE      ---       ---     ---   #211
      029F9CH     LINE      ---       ---     ---   #214
L166 LINKER/LOCATER V5.25                                                             12/14/2017  11:31:13  PAGE 50


      029FAEH     LINE      ---       ---     ---   #215
      ---         BLOCKEND  LVL=0     ---     ---   

      029FD6H     BLOCK     LVL=0     0082H   ---   CAN_Interrupt8
      02A000H     BLOCK     LVL=1     0030H   ---   
      000000H     SYMBOL    AUTO      ---     ---   msgData
      ---         BLOCKEND  LVL=1     ---     ---   
      029FD6H     LINE      ---       ---     ---   #217
      02A000H     LINE      ---       ---     ---   #218
      02A000H     LINE      ---       ---     ---   #221
      02A006H     LINE      ---       ---     ---   #222
      02A00EH     LINE      ---       ---     ---   #223
      02A016H     LINE      ---       ---     ---   #224
      02A01EH     LINE      ---       ---     ---   #226
      02A030H     LINE      ---       ---     ---   #227
      ---         BLOCKEND  LVL=0     ---     ---   

      02A058H     BLOCK     LVL=0     0082H   ---   CAN_Interrupt9
      02A082H     BLOCK     LVL=1     0030H   ---   
      000000H     SYMBOL    AUTO      ---     ---   msgData
      ---         BLOCKEND  LVL=1     ---     ---   
      02A058H     LINE      ---       ---     ---   #229
      02A082H     LINE      ---       ---     ---   #230
      02A082H     LINE      ---       ---     ---   #233
      02A088H     LINE      ---       ---     ---   #234
      02A090H     LINE      ---       ---     ---   #235
      02A098H     LINE      ---       ---     ---   #236
      02A0A0H     LINE      ---       ---     ---   #238
      02A0B2H     LINE      ---       ---     ---   #239
      ---         BLOCKEND  LVL=0     ---     ---   

      02A0DAH     BLOCK     LVL=0     0082H   ---   CAN_Interrupt10
      02A104H     BLOCK     LVL=1     0030H   ---   
      000000H     SYMBOL    AUTO      ---     ---   msgData
      ---         BLOCKEND  LVL=1     ---     ---   
      02A0DAH     LINE      ---       ---     ---   #241
      02A104H     LINE      ---       ---     ---   #242
      02A104H     LINE      ---       ---     ---   #245
      02A10AH     LINE      ---       ---     ---   #246
      02A112H     LINE      ---       ---     ---   #247
      02A11AH     LINE      ---       ---     ---   #248
      02A122H     LINE      ---       ---     ---   #250
      02A134H     LINE      ---       ---     ---   #251
      ---         BLOCKEND  LVL=0     ---     ---   

      02A15CH     BLOCK     LVL=0     008CH   ---   CAN_Interrupt11
      02A186H     BLOCK     LVL=1     003AH   ---   
      000000H     SYMBOL    AUTO      ---     ---   msgData
      000005H     SYMBOL    REG       ---     ---   regID
      ---         BLOCKEND  LVL=1     ---     ---   
      02A15CH     LINE      ---       ---     ---   #253
      02A186H     LINE      ---       ---     ---   #254
      02A186H     LINE      ---       ---     ---   #256
      02A190H     LINE      ---       ---     ---   #258
      02A196H     LINE      ---       ---     ---   #259
      02A19EH     LINE      ---       ---     ---   #260
      02A1A6H     LINE      ---       ---     ---   #261
L166 LINKER/LOCATER V5.25                                                             12/14/2017  11:31:13  PAGE 51


      02A1AEH     LINE      ---       ---     ---   #263
      02A1C0H     LINE      ---       ---     ---   #264
      ---         BLOCKEND  LVL=0     ---     ---   

      02A1E8H     BLOCK     LVL=0     04BCH   ---   CAN_Init
      02A1E8H     LINE      ---       ---     ---   #269
      02A1E8H     LINE      ---       ---     ---   #271
      02A1FAH     LINE      ---       ---     ---   #273
      02A200H     LINE      ---       ---     ---   #274
      02A204H     LINE      ---       ---     ---   #276
      02A208H     LINE      ---       ---     ---   #277
      02A20EH     LINE      ---       ---     ---   #278
      02A212H     LINE      ---       ---     ---   #281
      02A218H     LINE      ---       ---     ---   #283
      02A21CH     LINE      ---       ---     ---   #284
      02A220H     LINE      ---       ---     ---   #286
      02A224H     LINE      ---       ---     ---   #287
      02A22AH     LINE      ---       ---     ---   #288
      02A22EH     LINE      ---       ---     ---   #290
      02A232H     LINE      ---       ---     ---   #291
      02A236H     LINE      ---       ---     ---   #292
      02A23CH     LINE      ---       ---     ---   #293
      02A240H     LINE      ---       ---     ---   #294
      02A244H     LINE      ---       ---     ---   #295
      02A248H     LINE      ---       ---     ---   #297
      02A256H     LINE      ---       ---     ---   #298
      02A260H     LINE      ---       ---     ---   #299
      02A26CH     LINE      ---       ---     ---   #300
      02A274H     LINE      ---       ---     ---   #315
      02A27CH     LINE      ---       ---     ---   #316
      02A280H     LINE      ---       ---     ---   #317
      02A284H     LINE      ---       ---     ---   #318
      02A28CH     LINE      ---       ---     ---   #333
      02A294H     LINE      ---       ---     ---   #334
      02A298H     LINE      ---       ---     ---   #335
      02A29EH     LINE      ---       ---     ---   #336
      02A2A6H     LINE      ---       ---     ---   #338
      02A2AEH     LINE      ---       ---     ---   #339
      02A2B2H     LINE      ---       ---     ---   #340
      02A2B8H     LINE      ---       ---     ---   #341
      02A2C0H     LINE      ---       ---     ---   #343
      02A2C8H     LINE      ---       ---     ---   #344
      02A2CCH     LINE      ---       ---     ---   #345
      02A2D2H     LINE      ---       ---     ---   #346
      02A2DAH     LINE      ---       ---     ---   #348
      02A2E2H     LINE      ---       ---     ---   #349
      02A2E6H     LINE      ---       ---     ---   #350
      02A2ECH     LINE      ---       ---     ---   #351
      02A2F4H     LINE      ---       ---     ---   #353
      02A2FCH     LINE      ---       ---     ---   #354
      02A300H     LINE      ---       ---     ---   #355
      02A306H     LINE      ---       ---     ---   #356
      02A30EH     LINE      ---       ---     ---   #358
      02A316H     LINE      ---       ---     ---   #359
      02A31AH     LINE      ---       ---     ---   #360
      02A320H     LINE      ---       ---     ---   #361
      02A328H     LINE      ---       ---     ---   #363
L166 LINKER/LOCATER V5.25                                                             12/14/2017  11:31:13  PAGE 52


      02A330H     LINE      ---       ---     ---   #364
      02A334H     LINE      ---       ---     ---   #365
      02A33AH     LINE      ---       ---     ---   #366
      02A342H     LINE      ---       ---     ---   #368
      02A34AH     LINE      ---       ---     ---   #369
      02A34EH     LINE      ---       ---     ---   #370
      02A354H     LINE      ---       ---     ---   #371
      02A35CH     LINE      ---       ---     ---   #373
      02A364H     LINE      ---       ---     ---   #374
      02A368H     LINE      ---       ---     ---   #375
      02A36EH     LINE      ---       ---     ---   #376
      02A376H     LINE      ---       ---     ---   #378
      02A37EH     LINE      ---       ---     ---   #379
      02A382H     LINE      ---       ---     ---   #380
      02A388H     LINE      ---       ---     ---   #381
      02A390H     LINE      ---       ---     ---   #384
      02A398H     LINE      ---       ---     ---   #385
      02A39CH     LINE      ---       ---     ---   #386
      02A3A2H     LINE      ---       ---     ---   #387
      02A3AAH     LINE      ---       ---     ---   #401
      02A3B2H     LINE      ---       ---     ---   #403
      02A3BAH     LINE      ---       ---     ---   #404
      02A3C2H     LINE      ---       ---     ---   #406
      02A3CAH     LINE      ---       ---     ---   #407
      02A3D2H     LINE      ---       ---     ---   #409
      02A3DAH     LINE      ---       ---     ---   #410
      02A3E2H     LINE      ---       ---     ---   #412
      02A3EAH     LINE      ---       ---     ---   #413
      02A3F2H     LINE      ---       ---     ---   #415
      02A3FAH     LINE      ---       ---     ---   #416
      02A402H     LINE      ---       ---     ---   #418
      02A40AH     LINE      ---       ---     ---   #419
      02A412H     LINE      ---       ---     ---   #421
      02A41AH     LINE      ---       ---     ---   #422
      02A422H     LINE      ---       ---     ---   #424
      02A42AH     LINE      ---       ---     ---   #425
      02A432H     LINE      ---       ---     ---   #427
      02A43AH     LINE      ---       ---     ---   #428
      02A442H     LINE      ---       ---     ---   #430
      02A44AH     LINE      ---       ---     ---   #431
      02A452H     LINE      ---       ---     ---   #433
      02A45AH     LINE      ---       ---     ---   #434
      02A462H     LINE      ---       ---     ---   #436
      02A46AH     LINE      ---       ---     ---   #437
      02A472H     LINE      ---       ---     ---   #448
      02A47AH     LINE      ---       ---     ---   #450
      02A482H     LINE      ---       ---     ---   #451
      02A48EH     LINE      ---       ---     ---   #452
      02A49AH     LINE      ---       ---     ---   #455
      02A4A2H     LINE      ---       ---     ---   #456
      02A4AEH     LINE      ---       ---     ---   #457
      02A4BAH     LINE      ---       ---     ---   #460
      02A4C2H     LINE      ---       ---     ---   #461
      02A4CEH     LINE      ---       ---     ---   #462
      02A4DAH     LINE      ---       ---     ---   #464
      02A4E2H     LINE      ---       ---     ---   #465
      02A4EEH     LINE      ---       ---     ---   #466
L166 LINKER/LOCATER V5.25                                                             12/14/2017  11:31:13  PAGE 53


      02A4FAH     LINE      ---       ---     ---   #468
      02A502H     LINE      ---       ---     ---   #469
      02A50EH     LINE      ---       ---     ---   #470
      02A51AH     LINE      ---       ---     ---   #472
      02A522H     LINE      ---       ---     ---   #473
      02A52EH     LINE      ---       ---     ---   #474
      02A53AH     LINE      ---       ---     ---   #476
      02A542H     LINE      ---       ---     ---   #477
      02A54EH     LINE      ---       ---     ---   #478
      02A55AH     LINE      ---       ---     ---   #480
      02A562H     LINE      ---       ---     ---   #481
      02A56EH     LINE      ---       ---     ---   #482
      02A57AH     LINE      ---       ---     ---   #484
      02A582H     LINE      ---       ---     ---   #485
      02A58EH     LINE      ---       ---     ---   #486
      02A59AH     LINE      ---       ---     ---   #488
      02A5A2H     LINE      ---       ---     ---   #489
      02A5AEH     LINE      ---       ---     ---   #490
      02A5BAH     LINE      ---       ---     ---   #492
      02A5C2H     LINE      ---       ---     ---   #493
      02A5CEH     LINE      ---       ---     ---   #494
      02A5DAH     LINE      ---       ---     ---   #497
      02A5E2H     LINE      ---       ---     ---   #498
      02A5EEH     LINE      ---       ---     ---   #499
      02A5FAH     LINE      ---       ---     ---   #503
      02A602H     LINE      ---       ---     ---   #504
      02A608H     LINE      ---       ---     ---   #506
      02A610H     LINE      ---       ---     ---   #507
      02A616H     LINE      ---       ---     ---   #509
      02A61EH     LINE      ---       ---     ---   #510
      02A624H     LINE      ---       ---     ---   #513
      02A62CH     LINE      ---       ---     ---   #514
      02A632H     LINE      ---       ---     ---   #516
      02A63AH     LINE      ---       ---     ---   #517
      02A640H     LINE      ---       ---     ---   #519
      02A648H     LINE      ---       ---     ---   #520
      02A64EH     LINE      ---       ---     ---   #522
      02A656H     LINE      ---       ---     ---   #523
      02A65CH     LINE      ---       ---     ---   #525
      02A664H     LINE      ---       ---     ---   #526
      02A66AH     LINE      ---       ---     ---   #528
      02A672H     LINE      ---       ---     ---   #529
      02A678H     LINE      ---       ---     ---   #531
      02A680H     LINE      ---       ---     ---   #532
      02A686H     LINE      ---       ---     ---   #534
      02A68EH     LINE      ---       ---     ---   #535
      02A694H     LINE      ---       ---     ---   #537
      02A69CH     LINE      ---       ---     ---   #538
      02A6A2H     LINE      ---       ---     ---   #549
      ---         BLOCKEND  LVL=0     ---     ---   

      02A6A4H     BLOCK     LVL=0     0026H   ---   CAN_Process
      02A6A4H     LINE      ---       ---     ---   #550
      02A6A4H     LINE      ---       ---     ---   #553
      02A6B0H     LINE      ---       ---     ---   #555
      02A6BAH     LINE      ---       ---     ---   #556
      02A6C4H     LINE      ---       ---     ---   #557
L166 LINKER/LOCATER V5.25                                                             12/14/2017  11:31:13  PAGE 54


      02A6C8H     LINE      ---       ---     ---   #558
      02A6C8H     LINE      ---       ---     ---   #560
      ---         BLOCKEND  LVL=0     ---     ---   

      02A6CAH     BLOCK     LVL=0     00BEH   ---   CAN_SendMessage
      000009H     SYMBOL    REG       ---     ---   id
      00000EH     SYMBOL    REG       ---     ---   pData
      00004BH     SYMBOL    REG       ---     ---   Len
      02A6D6H     BLOCK     LVL=1     00AAH   ---   
      00000DH     SYMBOL    REG       ---     ---   curIndex
      ---         BLOCKEND  LVL=1     ---     ---   
      02A6CAH     LINE      ---       ---     ---   #566
      02A6D6H     LINE      ---       ---     ---   #567
      02A6D6H     LINE      ---       ---     ---   #568
      02A6DEH     LINE      ---       ---     ---   #570
      02A700H     LINE      ---       ---     ---   #571
      02A724H     LINE      ---       ---     ---   #572
      02A74AH     LINE      ---       ---     ---   #573
      02A76EH     LINE      ---       ---     ---   #575
      02A780H     LINE      ---       ---     ---   #576
      ---         BLOCKEND  LVL=0     ---     ---   

      02A788H     BLOCK     LVL=0     00C4H   ---   CAN_SendDefferedMessage
      000009H     SYMBOL    REG       ---     ---   id
      00000EH     SYMBOL    REG       ---     ---   pData
      00004BH     SYMBOL    REG       ---     ---   Len
      000000H     SYMBOL    AUTO      ---     ---   defTime
      02A796H     BLOCK     LVL=1     00ACH   ---   
      00000DH     SYMBOL    REG       ---     ---   curIndex
      ---         BLOCKEND  LVL=1     ---     ---   
      02A788H     LINE      ---       ---     ---   #577
      02A796H     LINE      ---       ---     ---   #578
      02A796H     LINE      ---       ---     ---   #579
      02A79EH     LINE      ---       ---     ---   #581
      02A7C0H     LINE      ---       ---     ---   #582
      02A7E4H     LINE      ---       ---     ---   #583
      02A80CH     LINE      ---       ---     ---   #584
      02A830H     LINE      ---       ---     ---   #586
      02A842H     LINE      ---       ---     ---   #587
      ---         BLOCKEND  LVL=0     ---     ---   

      02A84CH     BLOCK     LVL=0     0084H   ---   CAN_SendMessageIT
      000008H     SYMBOL    REG       ---     ---   id
      000002H     SYMBOL    REG       ---     ---   pData
      00004BH     SYMBOL    REG       ---     ---   Len
      02A852H     BLOCK     LVL=1     007AH   ---   
      00000CH     SYMBOL    REG       ---     ---   moData
      000082H     SYMBOL    REG       ---     ---   index
      ---         BLOCKEND  LVL=1     ---     ---   
      02A84CH     LINE      ---       ---     ---   #591
      02A852H     LINE      ---       ---     ---   #592
      02A852H     LINE      ---       ---     ---   #594
      02A85AH     LINE      ---       ---     ---   #595
      02A85CH     LINE      ---       ---     ---   #597
      02A868H     LINE      ---       ---     ---   #598
      02A878H     LINE      ---       ---     ---   #600
      02A884H     LINE      ---       ---     ---   #601
L166 LINKER/LOCATER V5.25                                                             12/14/2017  11:31:13  PAGE 55


      02A892H     LINE      ---       ---     ---   #604
      02A896H     LINE      ---       ---     ---   #606
      02A898H     LINE      ---       ---     ---   #608
      02A8B8H     LINE      ---       ---     ---   #609
      02A8C0H     LINE      ---       ---     ---   #611
      02A8C4H     LINE      ---       ---     ---   #613
      02A8CCH     LINE      ---       ---     ---   #615
      ---         BLOCKEND  LVL=0     ---     ---   
      02C064H     PUBLIC    LABEL     ---     ---   SETTINGS_Init
      02C14EH     PUBLIC    LABEL     ---     ---   SETTINGS_Save
      02C1F2H     PUBLIC    LABEL     ---     ---   SETTINGS_Load
      02C072H     PUBLIC    LABEL     ---     ---   SETTINGS_Default
      6244B2H     PUBLIC    VAR       ---     ---   MainSettings

      02C064H     BLOCK     LVL=0     000EH   ---   SETTINGS_Init
      02C064H     LINE      ---       ---     ---   #6
      02C064H     LINE      ---       ---     ---   #9
      02C06CH     LINE      ---       ---     ---   #11
      02C070H     LINE      ---       ---     ---   #12
      ---         BLOCKEND  LVL=0     ---     ---   

      02C072H     BLOCK     LVL=0     00DCH   ---   SETTINGS_Default
      02C072H     LINE      ---       ---     ---   #15
      02C072H     LINE      ---       ---     ---   #16
      02C072H     LINE      ---       ---     ---   #17
      02C072H     LINE      ---       ---     ---   #19
      02C084H     LINE      ---       ---     ---   #21
      02C096H     LINE      ---       ---     ---   #23
      02C0AAH     LINE      ---       ---     ---   #24
      02C0BCH     LINE      ---       ---     ---   #25
      02C0CEH     LINE      ---       ---     ---   #26
      02C0E0H     LINE      ---       ---     ---   #27
      02C0F4H     LINE      ---       ---     ---   #29
      02C106H     LINE      ---       ---     ---   #30
      02C118H     LINE      ---       ---     ---   #31
      02C12AH     LINE      ---       ---     ---   #32
      02C13CH     LINE      ---       ---     ---   #35
      02C148H     LINE      ---       ---     ---   #38
      02C14CH     LINE      ---       ---     ---   #40
      ---         BLOCKEND  LVL=0     ---     ---   

      02C14EH     BLOCK     LVL=0     00A4H   ---   SETTINGS_Save
      02C156H     BLOCK     LVL=1     0092H   ---   
      00000DH     SYMBOL    REG       ---     ---   i
      00000FH     SYMBOL    REG       ---     ---   addr_counter
      000000H     SYMBOL    AUTO      ---     ---   pSettings
      00000EH     SYMBOL    REG       ---     ---   chkSum
      ---         BLOCKEND  LVL=1     ---     ---   
      02C14EH     LINE      ---       ---     ---   #42
      02C156H     LINE      ---       ---     ---   #43
      02C156H     LINE      ---       ---     ---   #44
      02C15AH     LINE      ---       ---     ---   #46
      02C168H     LINE      ---       ---     ---   #47
      02C168H     LINE      ---       ---     ---   #49
      02C16AH     LINE      ---       ---     ---   #51
      02C16AH     LINE      ---       ---     ---   #52
      02C18EH     LINE      ---       ---     ---   #54
L166 LINKER/LOCATER V5.25                                                             12/14/2017  11:31:13  PAGE 56


      02C198H     LINE      ---       ---     ---   #55
      02C19CH     LINE      ---       ---     ---   #57
      02C1A8H     LINE      ---       ---     ---   #58
      02C1ACH     LINE      ---       ---     ---   #61
      02C1AEH     LINE      ---       ---     ---   #63
      02C1DAH     LINE      ---       ---     ---   #64
      02C1DEH     LINE      ---       ---     ---   #67
      02C1E0H     LINE      ---       ---     ---   #68
      02C1E8H     LINE      ---       ---     ---   #69
      ---         BLOCKEND  LVL=0     ---     ---   

      02C1F2H     BLOCK     LVL=0     008AH   ---   SETTINGS_Load
      02C1F6H     BLOCK     LVL=1     0080H   ---   
      000009H     SYMBOL    REG       ---     ---   i
      00000EH     SYMBOL    REG       ---     ---   addressChkSum
      00000AH     SYMBOL    REG       ---     ---   addressData
      000002H     SYMBOL    REG       ---     ---   pSettings
      00000CH     SYMBOL    REG       ---     ---   dataSize
      000007H     SYMBOL    REG       ---     ---   chkSum
      ---         BLOCKEND  LVL=1     ---     ---   
      02C1F2H     LINE      ---       ---     ---   #70
      02C1F6H     LINE      ---       ---     ---   #71
      02C1F6H     LINE      ---       ---     ---   #72
      02C1F8H     LINE      ---       ---     ---   #73
      02C202H     LINE      ---       ---     ---   #74
      02C20AH     LINE      ---       ---     ---   #76
      02C216H     LINE      ---       ---     ---   #77
      02C21AH     LINE      ---       ---     ---   #78
      02C21CH     LINE      ---       ---     ---   #80
      02C21EH     LINE      ---       ---     ---   #81
      02C22CH     LINE      ---       ---     ---   #83
      02C234H     LINE      ---       ---     ---   #85
      02C23CH     LINE      ---       ---     ---   #86
      02C240H     LINE      ---       ---     ---   #89
      02C244H     LINE      ---       ---     ---   #90
      02C26AH     LINE      ---       ---     ---   #92
      02C274H     LINE      ---       ---     ---   #93
      02C276H     LINE      ---       ---     ---   #94
      ---         BLOCKEND  LVL=0     ---     ---   
      02C506H     PUBLIC    LABEL     ---     ---   serial_TX_BUF_irc
      02C55CH     PUBLIC    LABEL     ---     ---   sendbyte
      02C502H     PUBLIC    LABEL     ---     ---   serial_TX_irq
      02C50AH     PUBLIC    LABEL     ---     ---   serial_RX_irq
      02C5B8H     PUBLIC    LABEL     ---     ---   init_asc0
      00FD00H.0   SYMBOL    BIT       ---     ---   recive_finish
      00FD00H.1   SYMBOL    BIT       ---     ---   transmit_finish
      00FD00H.2   SYMBOL    BIT       ---     ---   empty_TBUF

      02C502H     BLOCK     LVL=0     0004H   ---   serial_TX_irq
      02C502H     LINE      ---       ---     ---   #10
      02C502H     LINE      ---       ---     ---   #11
      02C504H     LINE      ---       ---     ---   #12
      ---         BLOCKEND  LVL=0     ---     ---   

      02C506H     BLOCK     LVL=0     0004H   ---   serial_TX_BUF_irc
      02C506H     LINE      ---       ---     ---   #14
      02C506H     LINE      ---       ---     ---   #15
L166 LINKER/LOCATER V5.25                                                             12/14/2017  11:31:13  PAGE 57


      02C508H     LINE      ---       ---     ---   #16
      ---         BLOCKEND  LVL=0     ---     ---   

      02C50AH     BLOCK     LVL=0     0052H   ---   serial_RX_irq
      02C50AH     LINE      ---       ---     ---   #18
      02C530H     LINE      ---       ---     ---   #19
      02C538H     LINE      ---       ---     ---   #21
      ---         BLOCKEND  LVL=0     ---     ---   

      02C55CH     BLOCK     LVL=0     005CH   ---   sendbyte
      000048H     SYMBOL    REG       ---     ---   c
      02C55CH     LINE      ---       ---     ---   #24
      02C55CH     LINE      ---       ---     ---   #25
      02C596H     LINE      ---       ---     ---   #26
      02C598H     LINE      ---       ---     ---   #27
      02C59EH     LINE      ---       ---     ---   #28
      02C5A4H     LINE      ---       ---     ---   #29
      02C5A4H     LINE      ---       ---     ---   #30
      02C5A6H     LINE      ---       ---     ---   #31
      02C5A8H     LINE      ---       ---     ---   #32
      02C5ACH     LINE      ---       ---     ---   #33
      02C5ACH     LINE      ---       ---     ---   #34
      02C5AEH     LINE      ---       ---     ---   #35
      02C5B6H     LINE      ---       ---     ---   #36
      02C5B6H     LINE      ---       ---     ---   #38
      ---         BLOCKEND  LVL=0     ---     ---   

      02C5B8H     BLOCK     LVL=0     0046H   ---   init_asc0
      000008H     SYMBOL    REG       ---     ---   freq
      00000AH     SYMBOL    REG       ---     ---   baud
      02C5B8H     LINE      ---       ---     ---   #49
      02C5B8H     LINE      ---       ---     ---   #52
      02C5D8H     LINE      ---       ---     ---   #53
      02C5DCH     LINE      ---       ---     ---   #54
      02C5E0H     LINE      ---       ---     ---   #55
      02C5EAH     LINE      ---       ---     ---   #56
      02C5EEH     LINE      ---       ---     ---   #57
      02C5F2H     LINE      ---       ---     ---   #58
      02C5F6H     LINE      ---       ---     ---   #59
      02C5FAH     LINE      ---       ---     ---   #60
      02C5FCH     LINE      ---       ---     ---   #61
      ---         BLOCKEND  LVL=0     ---     ---   
      02BFB4H     PUBLIC    LABEL     ---     ---   FLASH_WriteWord
      02BE40H     PUBLIC    LABEL     ---     ---   FLASH_EraseAll
      02BEE6H     PUBLIC    LABEL     ---     ---   FLASH_EraseSector
      02C03EH     PUBLIC    LABEL     ---     ---   FLASH_FSRControl

      02BE40H     BLOCK     LVL=0     00A6H   ---   FLASH_EraseAll
      02BE40H     BLOCK     LVL=1     00A4H   ---   
      000008H     SYMBOL    REG       ---     ---   Command_1
      00000AH     SYMBOL    REG       ---     ---   Command_2
      ---         BLOCKEND  LVL=1     ---     ---   
      02BE40H     LINE      ---       ---     ---   #3
      02BE40H     LINE      ---       ---     ---   #4
      02BE40H     LINE      ---       ---     ---   #5
      02BE4CH     LINE      ---       ---     ---   #6
      02BE54H     LINE      ---       ---     ---   #8
L166 LINKER/LOCATER V5.25                                                             12/14/2017  11:31:13  PAGE 58


      02BE5CH     LINE      ---       ---     ---   #9
      02BE64H     LINE      ---       ---     ---   #10
      02BE6CH     LINE      ---       ---     ---   #12
      02BE74H     LINE      ---       ---     ---   #13
      02BE7CH     LINE      ---       ---     ---   #14
      02BE84H     LINE      ---       ---     ---   #16
      02BE8CH     LINE      ---       ---     ---   #17
      02BE94H     LINE      ---       ---     ---   #18
      02BE9CH     LINE      ---       ---     ---   #20
      02BEA4H     LINE      ---       ---     ---   #21
      02BEACH     LINE      ---       ---     ---   #22
      02BEB4H     LINE      ---       ---     ---   #24
      02BEBCH     LINE      ---       ---     ---   #25
      02BEC4H     LINE      ---       ---     ---   #26
      02BECCH     LINE      ---       ---     ---   #28
      02BED4H     LINE      ---       ---     ---   #29
      02BEDCH     LINE      ---       ---     ---   #30
      02BEE4H     LINE      ---       ---     ---   #31
      ---         BLOCKEND  LVL=0     ---     ---   

      02BEE6H     BLOCK     LVL=0     00CEH   ---   FLASH_EraseSector
      000008H     SYMBOL    REG       ---     ---   sector
      02BEE6H     BLOCK     LVL=1     00CCH   ---   
      00000AH     SYMBOL    REG       ---     ---   Command_1
      000002H     SYMBOL    REG       ---     ---   Command_2
      000004H     SYMBOL    REG       ---     ---   Command_sector
      ---         BLOCKEND  LVL=1     ---     ---   
      02BEE6H     LINE      ---       ---     ---   #33
      02BEE6H     LINE      ---       ---     ---   #34
      02BEE6H     LINE      ---       ---     ---   #35
      02BEF2H     LINE      ---       ---     ---   #36
      02BEFAH     LINE      ---       ---     ---   #38
      02BF08H     LINE      ---       ---     ---   #40
      02BF12H     LINE      ---       ---     ---   #41
      02BF1AH     LINE      ---       ---     ---   #42
      02BF22H     LINE      ---       ---     ---   #44
      02BF2AH     LINE      ---       ---     ---   #45
      02BF32H     LINE      ---       ---     ---   #46
      02BF3AH     LINE      ---       ---     ---   #48
      02BF42H     LINE      ---       ---     ---   #49
      02BF4AH     LINE      ---       ---     ---   #50
      02BF52H     LINE      ---       ---     ---   #52
      02BF5AH     LINE      ---       ---     ---   #53
      02BF62H     LINE      ---       ---     ---   #54
      02BF6AH     LINE      ---       ---     ---   #56
      02BF72H     LINE      ---       ---     ---   #57
      02BF7AH     LINE      ---       ---     ---   #58
      02BF82H     LINE      ---       ---     ---   #60
      02BF8AH     LINE      ---       ---     ---   #61
      02BF92H     LINE      ---       ---     ---   #62
      02BF9AH     LINE      ---       ---     ---   #63
      02BFA2H     LINE      ---       ---     ---   #64
      02BFAAH     LINE      ---       ---     ---   #65
      02BFB2H     LINE      ---       ---     ---   #66
      ---         BLOCKEND  LVL=0     ---     ---   

      02BFB4H     BLOCK     LVL=0     008AH   ---   FLASH_WriteWord
L166 LINKER/LOCATER V5.25                                                             12/14/2017  11:31:13  PAGE 59


      000008H     SYMBOL    REG       ---     ---   address
      00000AH     SYMBOL    REG       ---     ---   word
      02BFB6H     BLOCK     LVL=1     0084H   ---   
      000002H     SYMBOL    REG       ---     ---   Command_1
      00000CH     SYMBOL    REG       ---     ---   Command_2
      000008H     SYMBOL    REG       ---     ---   Command_sector
      ---         BLOCKEND  LVL=1     ---     ---   
      02BFB4H     LINE      ---       ---     ---   #68
      02BFB6H     LINE      ---       ---     ---   #69
      02BFB6H     LINE      ---       ---     ---   #70
      02BFC2H     LINE      ---       ---     ---   #71
      02BFCAH     LINE      ---       ---     ---   #73
      02BFDCH     LINE      ---       ---     ---   #75
      02BFE6H     LINE      ---       ---     ---   #76
      02BFEEH     LINE      ---       ---     ---   #78
      02BFF6H     LINE      ---       ---     ---   #79
      02BFFEH     LINE      ---       ---     ---   #81
      02C006H     LINE      ---       ---     ---   #82
      02C00EH     LINE      ---       ---     ---   #84
      02C012H     LINE      ---       ---     ---   #86
      02C01AH     LINE      ---       ---     ---   #87
      02C022H     LINE      ---       ---     ---   #88
      02C02AH     LINE      ---       ---     ---   #89
      02C032H     LINE      ---       ---     ---   #90
      02C03AH     LINE      ---       ---     ---   #92
      ---         BLOCKEND  LVL=0     ---     ---   

      02C03EH     BLOCK     LVL=0     0026H   ---   FLASH_FSRControl
      02C040H     BLOCK     LVL=1     0020H   ---   
      000006H     SYMBOL    REG       ---     ---   FSR
      000000H     SYMBOL    AUTO      ---     ---   Register
      ---         BLOCKEND  LVL=1     ---     ---   
      02C03EH     LINE      ---       ---     ---   #93
      02C040H     LINE      ---       ---     ---   #94
      02C040H     LINE      ---       ---     ---   #95
      02C04CH     LINE      ---       ---     ---   #96
      02C052H     LINE      ---       ---     ---   #98
      02C054H     LINE      ---       ---     ---   #99
      02C05AH     LINE      ---       ---     ---   #100
      02C060H     LINE      ---       ---     ---   #101
      ---         BLOCKEND  LVL=0     ---     ---   
      02C36AH     PUBLIC    LABEL     ---     ---   System_Reset
      02C27CH     PUBLIC    LABEL     ---     ---   System_RAMTest
      02C336H     PUBLIC    LABEL     ---     ---   System_Delay
      02C372H     PUBLIC    LABEL     ---     ---   System_LEDPulse
      02C374H     PUBLIC    LABEL     ---     ---   System_LEDState
      02C370H     PUBLIC    LABEL     ---     ---   System_WDT_Reset
      02C3BCH     PUBLIC    LABEL     ---     ---   _timer3
      02C3B6H     PUBLIC    LABEL     ---     ---   _timer1
      050530H     SYMBOL    VAR       ---     ---   currentState

      02C27CH     BLOCK     LVL=0     00BAH   ---   System_RAMTest
      02C284H     BLOCK     LVL=1     00A8H   ---   
      000000H     SYMBOL    AUTO      ---     ---   pRamStart
      00000EH     SYMBOL    REG       ---     ---   index
      000004H     SYMBOL    AUTO      ---     ---   ramData
      00000DH     SYMBOL    REG       ---     ---   errBytes
L166 LINKER/LOCATER V5.25                                                             12/14/2017  11:31:13  PAGE 60


      ---         BLOCKEND  LVL=1     ---     ---   
      02C27CH     LINE      ---       ---     ---   #5
      02C284H     LINE      ---       ---     ---   #6
      02C284H     LINE      ---       ---     ---   #33
      02C290H     LINE      ---       ---     ---   #34
      02C294H     LINE      ---       ---     ---   #35
      02C298H     LINE      ---       ---     ---   #36
      02C29AH     LINE      ---       ---     ---   #38
      02C2A0H     LINE      ---       ---     ---   #40
      02C2A0H     LINE      ---       ---     ---   #42
      02C2B0H     LINE      ---       ---     ---   #44
      02C2B8H     LINE      ---       ---     ---   #45
      02C2D2H     LINE      ---       ---     ---   #46
      02C2E0H     LINE      ---       ---     ---   #48
      02C2E4H     LINE      ---       ---     ---   #49
      02C306H     LINE      ---       ---     ---   #51
      02C30CH     LINE      ---       ---     ---   #52
      02C30EH     LINE      ---       ---     ---   #53
      02C31CH     LINE      ---       ---     ---   #56
      02C32AH     LINE      ---       ---     ---   #58
      02C32CH     LINE      ---       ---     ---   #59
      ---         BLOCKEND  LVL=0     ---     ---   

      02C336H     BLOCK     LVL=0     0034H   ---   System_Delay
      000008H     SYMBOL    REG       ---     ---   z
      02C338H     BLOCK     LVL=1     002EH   ---   
      000000H     SYMBOL    AUTO      ---     ---   x
      000004H     SYMBOL    AUTO      ---     ---   foo
      ---         BLOCKEND  LVL=1     ---     ---   
      02C336H     LINE      ---       ---     ---   #61
      02C338H     LINE      ---       ---     ---   #63
      02C33EH     LINE      ---       ---     ---   #64
      02C346H     LINE      ---       ---     ---   #65
      02C348H     LINE      ---       ---     ---   #66
      02C34AH     LINE      ---       ---     ---   #72
      02C366H     LINE      ---       ---     ---   #73
      ---         BLOCKEND  LVL=0     ---     ---   

      02C36AH     BLOCK     LVL=0     0006H   ---   System_Reset
      02C36AH     LINE      ---       ---     ---   #74
      02C36AH     LINE      ---       ---     ---   #78
      02C36EH     LINE      ---       ---     ---   #80
      ---         BLOCKEND  LVL=0     ---     ---   

      02C370H     BLOCK     LVL=0     0002H   ---   System_WDT_Reset
      02C370H     LINE      ---       ---     ---   #82
      02C370H     LINE      ---       ---     ---   #85
      02C370H     LINE      ---       ---     ---   #86
      ---         BLOCKEND  LVL=0     ---     ---   

      02C372H     BLOCK     LVL=0     0002H   ---   System_LEDPulse
      02C372H     LINE      ---       ---     ---   #88
      02C372H     LINE      ---       ---     ---   #91
      ---         BLOCKEND  LVL=0     ---     ---   

      02C374H     BLOCK     LVL=0     0042H   ---   System_LEDState
      000008H     SYMBOL    REG       ---     ---   State
L166 LINKER/LOCATER V5.25                                                             12/14/2017  11:31:13  PAGE 61


      02C374H     LINE      ---       ---     ---   #93
      02C374H     LINE      ---       ---     ---   #95
      02C37AH     LINE      ---       ---     ---   #96
      02C37AH     LINE      ---       ---     ---   #98
      02C38AH     LINE      ---       ---     ---   #100
      02C38AH     LINE      ---       ---     ---   #102
      02C38EH     LINE      ---       ---     ---   #103
      02C390H     LINE      ---       ---     ---   #104
      02C394H     LINE      ---       ---     ---   #107
      02C396H     LINE      ---       ---     ---   #109
      02C396H     LINE      ---       ---     ---   #111
      02C39AH     LINE      ---       ---     ---   #112
      02C39CH     LINE      ---       ---     ---   #113
      02C3A0H     LINE      ---       ---     ---   #114
      02C3A2H     LINE      ---       ---     ---   #116
      02C3A2H     LINE      ---       ---     ---   #118
      02C3A6H     LINE      ---       ---     ---   #119
      02C3A8H     LINE      ---       ---     ---   #121
      02C3AAH     LINE      ---       ---     ---   #123
      02C3AAH     LINE      ---       ---     ---   #125
      02C3AEH     LINE      ---       ---     ---   #126
      02C3B0H     LINE      ---       ---     ---   #127
      02C3B0H     LINE      ---       ---     ---   #128
      02C3B0H     LINE      ---       ---     ---   #129
      02C3B4H     LINE      ---       ---     ---   #130
      ---         BLOCKEND  LVL=0     ---     ---   

      02C3B6H     BLOCK     LVL=0     0006H   ---   _timer1
      02C3B6H     LINE      ---       ---     ---   #132
      02C3B6H     LINE      ---       ---     ---   #135
      02C3BAH     LINE      ---       ---     ---   #138
      ---         BLOCKEND  LVL=0     ---     ---   

      02C3BCH     BLOCK     LVL=0     0018H   ---   _timer3
      02C3BCH     LINE      ---       ---     ---   #139
      02C3BCH     LINE      ---       ---     ---   #143
      02C3C2H     LINE      ---       ---     ---   #144
      02C3C6H     LINE      ---       ---     ---   #145
      02C3C8H     LINE      ---       ---     ---   #146
      02C3CEH     LINE      ---       ---     ---   #147
      02C3D2H     LINE      ---       ---     ---   #148
      ---         BLOCKEND  LVL=0     ---     ---   
      02C926H     PUBLIC    LABEL     ---     ---   BSL_Init
      02C928H     PUBLIC    LABEL     ---     ---   BSL_Start
      000090H     SYMBOL    VAR       ---     ---   ?tpl?0001

      02C926H     BLOCK     LVL=0     0002H   ---   BSL_Init
      02C926H     LINE      ---       ---     ---   #12
      02C926H     LINE      ---       ---     ---   #64
      ---         BLOCKEND  LVL=0     ---     ---   

      02C928H     BLOCK     LVL=0     0030H   ---   BSL_Start
      02C92CH     BLOCK     LVL=1     0026H   ---   
      000000H     SYMBOL    AUTO      ---     ---   msgData
      ---         BLOCKEND  LVL=1     ---     ---   
      02C928H     LINE      ---       ---     ---   #67
      02C92CH     LINE      ---       ---     ---   #68
L166 LINKER/LOCATER V5.25                                                             12/14/2017  11:31:13  PAGE 62


      02C92CH     LINE      ---       ---     ---   #74
      02C93CH     LINE      ---       ---     ---   #75
      02C952H     LINE      ---       ---     ---   #77
      ---         BLOCKEND  LVL=0     ---     ---   
      02AA92H     PUBLIC    LABEL     ---     ---   BDMG_InsertData
      02A932H     PUBLIC    LABEL     ---     ---   BDMG_ForcedStart
      02B1D0H     PUBLIC    LABEL     ---     ---   BDMG_GetParametrs
      02B160H     PUBLIC    LABEL     ---     ---   BDMG_GetInsideFeature
      02A9FAH     PUBLIC    LABEL     ---     ---   BDMG_WriteParametr
      02AA7CH     PUBLIC    LABEL     ---     ---   BDMG_StartWritingParametrs
      02A99EH     PUBLIC    LABEL     ---     ---   BDMG_ParametrRequest
      02B152H     PUBLIC    LABEL     ---     ---   BDMG_GetDose
      02A98AH     PUBLIC    LABEL     ---     ---   BDMG_Stop
      02B144H     PUBLIC    LABEL     ---     ---   BDMG_GetCurrentDose
      02A90CH     PUBLIC    LABEL     ---     ---   BDMG_Start
      02AB3EH     PUBLIC    LABEL     ---     ---   BDMG_InsertCmd
      02A8D0H     PUBLIC    LABEL     ---     ---   BDMG_Reset
      004066H     PUBLIC    VAR       ---     ---   startBDMGMsg
      004067H     PUBLIC    VAR       ---     ---   stopBDMGMsg
      000054H     PUBLIC    VAR       ---     ---   resetBDMGMsg
      00005CH     PUBLIC    VAR       ---     ---   getDeadTime3Msg
      000064H     PUBLIC    VAR       ---     ---   getDeadTime2Msg
      00006CH     PUBLIC    VAR       ---     ---   getDeadTime1Msg
      000074H     PUBLIC    VAR       ---     ---   autoModeBDMGMsg
      050522H     SYMBOL    VAR       ---     ---   oldCurrentDose
      050526H     SYMBOL    VAR       ---     ---   msgCounter
      62445CH     SYMBOL    VAR       ---     ---   BDMGParamets
      62449EH     SYMBOL    VAR       ---     ---   BDMGData

      02A8D0H     BLOCK     LVL=0     003CH   ---   BDMG_Reset
      02A8D0H     LINE      ---       ---     ---   #24
      02A8D0H     LINE      ---       ---     ---   #26
      02A8D4H     LINE      ---       ---     ---   #28
      02A8E6H     LINE      ---       ---     ---   #29
      02A8F8H     LINE      ---       ---     ---   #31
      02A90AH     LINE      ---       ---     ---   #33
      ---         BLOCKEND  LVL=0     ---     ---   

      02A90CH     BLOCK     LVL=0     0026H   ---   BDMG_Start
      02A90CH     LINE      ---       ---     ---   #35
      02A90CH     LINE      ---       ---     ---   #37
      02A91EH     LINE      ---       ---     ---   #38
      02A930H     LINE      ---       ---     ---   #40
      ---         BLOCKEND  LVL=0     ---     ---   

      02A932H     BLOCK     LVL=0     0058H   ---   BDMG_ForcedStart
      00004DH     SYMBOL    REG       ---     ---   rangeIndex
      02A93AH     BLOCK     LVL=1     0048H   ---   
      000000H     SYMBOL    AUTO      ---     ---   pData
      ---         BLOCKEND  LVL=1     ---     ---   
      02A932H     LINE      ---       ---     ---   #41
      02A93AH     LINE      ---       ---     ---   #42
      02A93AH     LINE      ---       ---     ---   #45
      02A954H     LINE      ---       ---     ---   #47
      02A95AH     LINE      ---       ---     ---   #49
      02A970H     LINE      ---       ---     ---   #50
      02A982H     LINE      ---       ---     ---   #51
L166 LINKER/LOCATER V5.25                                                             12/14/2017  11:31:13  PAGE 63


      ---         BLOCKEND  LVL=0     ---     ---   

      02A98AH     BLOCK     LVL=0     0014H   ---   BDMG_Stop
      02A98AH     LINE      ---       ---     ---   #53
      02A98AH     LINE      ---       ---     ---   #55
      02A99CH     LINE      ---       ---     ---   #56
      ---         BLOCKEND  LVL=0     ---     ---   

      02A99EH     BLOCK     LVL=0     005CH   ---   BDMG_ParametrRequest
      00004EH     SYMBOL    REG       ---     ---   paramIndex
      00000DH     SYMBOL    REG       ---     ---   paramSubIndex
      02A9AAH     BLOCK     LVL=1     0046H   ---   
      000000H     SYMBOL    AUTO      ---     ---   Data
      ---         BLOCKEND  LVL=1     ---     ---   
      02A99EH     LINE      ---       ---     ---   #58
      02A9AAH     LINE      ---       ---     ---   #59
      02A9AAH     LINE      ---       ---     ---   #62
      02A9BEH     LINE      ---       ---     ---   #64
      02A9C2H     LINE      ---       ---     ---   #65
      02A9C8H     LINE      ---       ---     ---   #66
      02A9D2H     LINE      ---       ---     ---   #67
      02A9DAH     LINE      ---       ---     ---   #69
      02A9F0H     LINE      ---       ---     ---   #70
      ---         BLOCKEND  LVL=0     ---     ---   

      02A9FAH     BLOCK     LVL=0     0082H   ---   BDMG_WriteParametr
      00004FH     SYMBOL    REG       ---     ---   paramIndex
      00000DH     SYMBOL    REG       ---     ---   paramSubIndex
      000008H     SYMBOL    AUTO      ---     ---   pParam
      00000EH     SYMBOL    REG       ---     ---   dataSize
      02AA0EH     BLOCK     LVL=1     0062H   ---   
      000000H     SYMBOL    AUTO      ---     ---   Data
      ---         BLOCKEND  LVL=1     ---     ---   
      02A9FAH     LINE      ---       ---     ---   #71
      02AA0EH     LINE      ---       ---     ---   #72
      02AA0EH     LINE      ---       ---     ---   #75
      02AA22H     LINE      ---       ---     ---   #77
      02AA26H     LINE      ---       ---     ---   #78
      02AA2CH     LINE      ---       ---     ---   #79
      02AA36H     LINE      ---       ---     ---   #80
      02AA3EH     LINE      ---       ---     ---   #82
      02AA5AH     LINE      ---       ---     ---   #84
      02AA70H     LINE      ---       ---     ---   #86
      ---         BLOCKEND  LVL=0     ---     ---   

      02AA7CH     BLOCK     LVL=0     0016H   ---   BDMG_StartWritingParametrs
      02AA7CH     LINE      ---       ---     ---   #88
      02AA7CH     LINE      ---       ---     ---   #90
      02AA90H     LINE      ---       ---     ---   #91
      ---         BLOCKEND  LVL=0     ---     ---   

      02AA92H     BLOCK     LVL=0     00ACH   ---   BDMG_InsertData
      000008H     SYMBOL    REG       ---     ---   pData
      02AA92H     LINE      ---       ---     ---   #93
      02AA92H     LINE      ---       ---     ---   #95
      02AADAH     LINE      ---       ---     ---   #97
      02AAF2H     LINE      ---       ---     ---   #99
L166 LINKER/LOCATER V5.25                                                             12/14/2017  11:31:13  PAGE 64


      02AB04H     LINE      ---       ---     ---   #101
      02AB3CH     LINE      ---       ---     ---   #103
      ---         BLOCKEND  LVL=0     ---     ---   

      02AB3EH     BLOCK     LVL=0     0606H   ---   BDMG_InsertCmd
      00000EH     SYMBOL    REG       ---     ---   pData
      02AB3EH     LINE      ---       ---     ---   #107
      02AB46H     LINE      ---       ---     ---   #110
      02AB5EH     LINE      ---       ---     ---   #112
      02AB64H     LINE      ---       ---     ---   #114
      02AB6EH     LINE      ---       ---     ---   #115
      02AB6EH     LINE      ---       ---     ---   #117
      02AB7EH     LINE      ---       ---     ---   #120
      02AB7EH     LINE      ---       ---     ---   #122
      02AB90H     LINE      ---       ---     ---   #123
      02ABA6H     LINE      ---       ---     ---   #124
      02ABB0H     LINE      ---       ---     ---   #125
      02ABB0H     LINE      ---       ---     ---   #126
      02ABC2H     LINE      ---       ---     ---   #127
      02ABD8H     LINE      ---       ---     ---   #128
      02ABE2H     LINE      ---       ---     ---   #129
      02ABE2H     LINE      ---       ---     ---   #130
      02ABF4H     LINE      ---       ---     ---   #131
      02AC0AH     LINE      ---       ---     ---   #132
      02AC14H     LINE      ---       ---     ---   #133
      02AC14H     LINE      ---       ---     ---   #135
      02AC26H     LINE      ---       ---     ---   #136
      02AC3CH     LINE      ---       ---     ---   #137
      02AC46H     LINE      ---       ---     ---   #138
      02AC46H     LINE      ---       ---     ---   #139
      02AC58H     LINE      ---       ---     ---   #140
      02AC6EH     LINE      ---       ---     ---   #141
      02AC78H     LINE      ---       ---     ---   #142
      02AC78H     LINE      ---       ---     ---   #143
      02AC8AH     LINE      ---       ---     ---   #144
      02ACA0H     LINE      ---       ---     ---   #145
      02ACAAH     LINE      ---       ---     ---   #146
      02ACAAH     LINE      ---       ---     ---   #147
      02ACBCH     LINE      ---       ---     ---   #148
      02ACD2H     LINE      ---       ---     ---   #149
      02ACDCH     LINE      ---       ---     ---   #150
      02ACDCH     LINE      ---       ---     ---   #151
      02ACEEH     LINE      ---       ---     ---   #152
      02AD04H     LINE      ---       ---     ---   #153
      02AD0EH     LINE      ---       ---     ---   #154
      02AD0EH     LINE      ---       ---     ---   #155
      02AD20H     LINE      ---       ---     ---   #156
      02AD36H     LINE      ---       ---     ---   #157
      02AD40H     LINE      ---       ---     ---   #158
      02AD40H     LINE      ---       ---     ---   #159
      02AD52H     LINE      ---       ---     ---   #160
      02AD68H     LINE      ---       ---     ---   #161
      02AD72H     LINE      ---       ---     ---   #162
      02AD72H     LINE      ---       ---     ---   #163
      02AD84H     LINE      ---       ---     ---   #164
      02AD9AH     LINE      ---       ---     ---   #165
      02ADA4H     LINE      ---       ---     ---   #166
L166 LINKER/LOCATER V5.25                                                             12/14/2017  11:31:13  PAGE 65


      02ADA4H     LINE      ---       ---     ---   #169
      02ADB6H     LINE      ---       ---     ---   #170
      02ADCCH     LINE      ---       ---     ---   #171
      02ADD6H     LINE      ---       ---     ---   #172
      02ADD6H     LINE      ---       ---     ---   #173
      02ADE8H     LINE      ---       ---     ---   #174
      02ADFEH     LINE      ---       ---     ---   #175
      02AE08H     LINE      ---       ---     ---   #176
      02AE08H     LINE      ---       ---     ---   #177
      02AE1AH     LINE      ---       ---     ---   #178
      02AE30H     LINE      ---       ---     ---   #179
      02AE3AH     LINE      ---       ---     ---   #180
      02AE3AH     LINE      ---       ---     ---   #181
      02AE4CH     LINE      ---       ---     ---   #182
      02AE62H     LINE      ---       ---     ---   #183
      02AE6CH     LINE      ---       ---     ---   #184
      02AE6CH     LINE      ---       ---     ---   #185
      02AE7EH     LINE      ---       ---     ---   #186
      02AE94H     LINE      ---       ---     ---   #187
      02AE9EH     LINE      ---       ---     ---   #188
      02AE9EH     LINE      ---       ---     ---   #189
      02AEB0H     LINE      ---       ---     ---   #190
      02AEC6H     LINE      ---       ---     ---   #191
      02AED0H     LINE      ---       ---     ---   #192
      02AED0H     LINE      ---       ---     ---   #193
      02AEE2H     LINE      ---       ---     ---   #194
      02AEF8H     LINE      ---       ---     ---   #195
      02AF02H     LINE      ---       ---     ---   #196
      02AF02H     LINE      ---       ---     ---   #198
      02AF16H     LINE      ---       ---     ---   #199
      02AF2CH     LINE      ---       ---     ---   #201
      02AF30H     LINE      ---       ---     ---   #202
      02AF30H     LINE      ---       ---     ---   #204
      02AF34H     LINE      ---       ---     ---   #206
      02AF34H     LINE      ---       ---     ---   #208
      02AFA2H     LINE      ---       ---     ---   #210
      02AFBAH     LINE      ---       ---     ---   #211
      02AFD2H     LINE      ---       ---     ---   #212
      02AFEAH     LINE      ---       ---     ---   #213
      02B002H     LINE      ---       ---     ---   #214
      02B01AH     LINE      ---       ---     ---   #215
      02B032H     LINE      ---       ---     ---   #216
      02B048H     LINE      ---       ---     ---   #217
      02B05EH     LINE      ---       ---     ---   #218
      02B074H     LINE      ---       ---     ---   #219
      02B08AH     LINE      ---       ---     ---   #220
      02B0A0H     LINE      ---       ---     ---   #222
      02B0B6H     LINE      ---       ---     ---   #223
      02B0CCH     LINE      ---       ---     ---   #224
      02B0E2H     LINE      ---       ---     ---   #225
      02B0F8H     LINE      ---       ---     ---   #227
      02B10EH     LINE      ---       ---     ---   #228
      02B124H     LINE      ---       ---     ---   #230
      02B13AH     LINE      ---       ---     ---   #231
      02B13AH     LINE      ---       ---     ---   #233
      02B13EH     LINE      ---       ---     ---   #234
      02B13EH     LINE      ---       ---     ---   #235
L166 LINKER/LOCATER V5.25                                                             12/14/2017  11:31:13  PAGE 66


      02B13EH     LINE      ---       ---     ---   #236
      02B13EH     LINE      ---       ---     ---   #237
      02B13EH     LINE      ---       ---     ---   #238
      ---         BLOCKEND  LVL=0     ---     ---   

      02B144H     BLOCK     LVL=0     000EH   ---   BDMG_GetCurrentDose
      02B144H     LINE      ---       ---     ---   #239
      02B144H     LINE      ---       ---     ---   #241
      02B150H     LINE      ---       ---     ---   #242
      ---         BLOCKEND  LVL=0     ---     ---   

      02B152H     BLOCK     LVL=0     000EH   ---   BDMG_GetDose
      02B152H     LINE      ---       ---     ---   #243
      02B152H     LINE      ---       ---     ---   #245
      02B15EH     LINE      ---       ---     ---   #246
      ---         BLOCKEND  LVL=0     ---     ---   

      02B160H     BLOCK     LVL=0     0070H   ---   BDMG_GetInsideFeature
      02B160H     LINE      ---       ---     ---   #247
      02B160H     LINE      ---       ---     ---   #250
      02B192H     LINE      ---       ---     ---   #251
      02B196H     LINE      ---       ---     ---   #252
      02B1C8H     LINE      ---       ---     ---   #253
      02B1CCH     LINE      ---       ---     ---   #255
      02B1CEH     LINE      ---       ---     ---   #256
      ---         BLOCKEND  LVL=0     ---     ---   

      02B1D0H     BLOCK     LVL=0     000AH   ---   BDMG_GetParametrs
      02B1D0H     LINE      ---       ---     ---   #257
      02B1D0H     LINE      ---       ---     ---   #259
      02B1D8H     LINE      ---       ---     ---   #260
      ---         BLOCKEND  LVL=0     ---     ---   
      026636H     PUBLIC    LABEL     ---     ---   BDGP_GetAverageDoseRate
      025B5CH     PUBLIC    LABEL     ---     ---   BDGP_MaxSumSensData
      0261E8H     PUBLIC    LABEL     ---     ---   BDGP_BackgroundAccumulation
      025AF0H     PUBLIC    LABEL     ---     ---   BDGP_MinSumSensData
      0281C4H     PUBLIC    LABEL     ---     ---   BDGP_GetMaximumAngle
      025D58H     PUBLIC    LABEL     ---     ---   BDGP_ForcedStart
      027B08H     PUBLIC    LABEL     ---     ---   BDGP_Process
      026652H     PUBLIC    LABEL     ---     ---   BDGP_GetParametrs
      0281E6H     PUBLIC    LABEL     ---     ---   BDGP_GetOutsideFeature
      025C80H     PUBLIC    LABEL     ---     ---   BDGP_WriteParametr
      02665CH     PUBLIC    LABEL     ---     ---   BDGP_DirectionDiagramm
      0279BAH     PUBLIC    LABEL     ---     ---   BDGP_BackgroundIdentification
      025D08H     PUBLIC    LABEL     ---     ---   BDGP_StartWritingParametrs
      025C20H     PUBLIC    LABEL     ---     ---   BDGP_ParametrRequest
      025D94H     PUBLIC    LABEL     ---     ---   BDGP_InsertParametrs
      0281CEH     PUBLIC    LABEL     ---     ---   BDGP_GetDose
      0281DCH     PUBLIC    LABEL     ---     ---   BDGP_GetBackgroundState
      027892H     PUBLIC    LABEL     ---     ---   BDGP_GetAngularDiagram
      025D80H     PUBLIC    LABEL     ---     ---   BDGP_Stop
      026644H     PUBLIC    LABEL     ---     ---   BDGP_GetCurrentDoseRate
      026418H     PUBLIC    LABEL     ---     ---   BDGP_InsertDataNew
      0278D6H     PUBLIC    LABEL     ---     ---   BDGP_DataArrayCorrection
      025D44H     PUBLIC    LABEL     ---     ---   BDGP_Start
      026618H     PUBLIC    LABEL     ---     ---   BDGP_InsertCmd
      025ABEH     PUBLIC    LABEL     ---     ---   BDGP_MaxCounter
L166 LINKER/LOCATER V5.25                                                             12/14/2017  11:31:13  PAGE 67


      0263E6H     PUBLIC    LABEL     ---     ---   BDGP_ResetBackgroundData
      025A8AH     PUBLIC    LABEL     ---     ---   BDGP_MinCounter
      025BC6H     PUBLIC    LABEL     ---     ---   BDGP_Reset
      004054H     PUBLIC    VAR       ---     ---   fNormalBDSPFactor
      004058H     PUBLIC    VAR       ---     ---   startBDGPMsg
      004059H     PUBLIC    VAR       ---     ---   resetBDGPMsg
      00405AH     PUBLIC    VAR       ---     ---   stopBDGPMsg
      000232H     PUBLIC    VAR       ---     ---   BDSPdirectionCoef
      000506H     PUBLIC    VAR       ---     ---   BDGPdirectionCoef
      050527H     SYMBOL    VAR       ---     ---   currentRangeIndex
      050528H     SYMBOL    VAR       ---     ---   dynamicMode
      050529H     SYMBOL    VAR       ---     ---   sliderCounter
      05052AH     SYMBOL    VAR       ---     ---   msgCounterBDGP
      05052BH     SYMBOL    VAR       ---     ---   sliderMax
      622998H     SYMBOL    VAR       ---     ---   fAngleDiagramm
      622A58H     SYMBOL    VAR       ---     ---   fLikelihoods
      622FF8H     SYMBOL    VAR       ---     ---   BDGPParametrs
      623078H     SYMBOL    VAR       ---     ---   doseArray
      6230F0H     SYMBOL    VAR       ---     ---   BDGPData

      025A8AH     BLOCK     LVL=0     0034H   ---   BDGP_MinCounter
      025A8AH     BLOCK     LVL=1     0032H   ---   
      000082H     SYMBOL    REG       ---     ---   i
      000008H     SYMBOL    REG       ---     ---   result
      ---         BLOCKEND  LVL=1     ---     ---   
      025A8AH     LINE      ---       ---     ---   #400
      025A8AH     LINE      ---       ---     ---   #401
      025A8AH     LINE      ---       ---     ---   #402
      025A8CH     LINE      ---       ---     ---   #403
      025A90H     LINE      ---       ---     ---   #405
      025A90H     LINE      ---       ---     ---   #406
      025AB0H     LINE      ---       ---     ---   #407
      025AB2H     LINE      ---       ---     ---   #408
      025ABAH     LINE      ---       ---     ---   #409
      025ABCH     LINE      ---       ---     ---   #410
      ---         BLOCKEND  LVL=0     ---     ---   

      025ABEH     BLOCK     LVL=0     0032H   ---   BDGP_MaxCounter
      025ABEH     BLOCK     LVL=1     0030H   ---   
      000082H     SYMBOL    REG       ---     ---   i
      000008H     SYMBOL    REG       ---     ---   result
      ---         BLOCKEND  LVL=1     ---     ---   
      025ABEH     LINE      ---       ---     ---   #411
      025ABEH     LINE      ---       ---     ---   #412
      025ABEH     LINE      ---       ---     ---   #413
      025AC0H     LINE      ---       ---     ---   #414
      025AC2H     LINE      ---       ---     ---   #416
      025AC2H     LINE      ---       ---     ---   #417
      025AE2H     LINE      ---       ---     ---   #418
      025AE4H     LINE      ---       ---     ---   #419
      025AECH     LINE      ---       ---     ---   #420
      025AEEH     LINE      ---       ---     ---   #421
      ---         BLOCKEND  LVL=0     ---     ---   

      025AF0H     BLOCK     LVL=0     006CH   ---   BDGP_MinSumSensData
      025AF4H     BLOCK     LVL=1     0062H   ---   
      00004CH     SYMBOL    REG       ---     ---   i
L166 LINKER/LOCATER V5.25                                                             12/14/2017  11:31:13  PAGE 68


      00000EH     SYMBOL    REG       ---     ---   result
      ---         BLOCKEND  LVL=1     ---     ---   
      025AF0H     LINE      ---       ---     ---   #423
      025AF4H     LINE      ---       ---     ---   #424
      025AF4H     LINE      ---       ---     ---   #425
      025AF6H     LINE      ---       ---     ---   #426
      025AFEH     LINE      ---       ---     ---   #427
      025AFEH     LINE      ---       ---     ---   #428
      025B26H     LINE      ---       ---     ---   #429
      025B48H     LINE      ---       ---     ---   #430
      025B52H     LINE      ---       ---     ---   #431
      025B56H     LINE      ---       ---     ---   #432
      ---         BLOCKEND  LVL=0     ---     ---   

      025B5CH     BLOCK     LVL=0     006AH   ---   BDGP_MaxSumSensData
      025B60H     BLOCK     LVL=1     0060H   ---   
      00004CH     SYMBOL    REG       ---     ---   i
      00000EH     SYMBOL    REG       ---     ---   result
      ---         BLOCKEND  LVL=1     ---     ---   
      025B5CH     LINE      ---       ---     ---   #433
      025B60H     LINE      ---       ---     ---   #434
      025B60H     LINE      ---       ---     ---   #435
      025B62H     LINE      ---       ---     ---   #436
      025B68H     LINE      ---       ---     ---   #437
      025B68H     LINE      ---       ---     ---   #438
      025B90H     LINE      ---       ---     ---   #439
      025BB2H     LINE      ---       ---     ---   #440
      025BBCH     LINE      ---       ---     ---   #441
      025BC0H     LINE      ---       ---     ---   #442
      ---         BLOCKEND  LVL=0     ---     ---   

      025BC6H     BLOCK     LVL=0     005AH   ---   BDGP_Reset
      025BC6H     LINE      ---       ---     ---   #444
      025BC6H     LINE      ---       ---     ---   #446
      025BCAH     LINE      ---       ---     ---   #447
      025BCEH     LINE      ---       ---     ---   #448
      025BD2H     LINE      ---       ---     ---   #449
      025BD6H     LINE      ---       ---     ---   #451
      025BE8H     LINE      ---       ---     ---   #452
      025BFAH     LINE      ---       ---     ---   #453
      025C0CH     LINE      ---       ---     ---   #455
      025C1EH     LINE      ---       ---     ---   #459
      ---         BLOCKEND  LVL=0     ---     ---   

      025C20H     BLOCK     LVL=0     0060H   ---   BDGP_ParametrRequest
      000048H     SYMBOL    REG       ---     ---   range
      00004EH     SYMBOL    REG       ---     ---   paramIndex
      00004DH     SYMBOL    REG       ---     ---   paramSubIndex
      025C2EH     BLOCK     LVL=1     0046H   ---   
      00000FH     SYMBOL    REG       ---     ---   canID
      000000H     SYMBOL    AUTO      ---     ---   Data
      ---         BLOCKEND  LVL=1     ---     ---   
      025C20H     LINE      ---       ---     ---   #468
      025C2EH     LINE      ---       ---     ---   #469
      025C2EH     LINE      ---       ---     ---   #470
      025C36H     LINE      ---       ---     ---   #474
      025C4AH     LINE      ---       ---     ---   #476
L166 LINKER/LOCATER V5.25                                                             12/14/2017  11:31:13  PAGE 69


      025C4EH     LINE      ---       ---     ---   #477
      025C54H     LINE      ---       ---     ---   #478
      025C5AH     LINE      ---       ---     ---   #479
      025C60H     LINE      ---       ---     ---   #481
      025C74H     LINE      ---       ---     ---   #482
      ---         BLOCKEND  LVL=0     ---     ---   

      025C80H     BLOCK     LVL=0     0088H   ---   BDGP_WriteParametr
      000048H     SYMBOL    REG       ---     ---   range
      00000AH     SYMBOL    AUTO      ---     ---   paramIndex
      00004DH     SYMBOL    REG       ---     ---   paramSubIndex
      00000EH     SYMBOL    REG       ---     ---   pParam
      00000CH     SYMBOL    AUTO      ---     ---   dataSize
      025C92H     BLOCK     LVL=1     006AH   ---   
      000000H     SYMBOL    AUTO      ---     ---   canID
      000002H     SYMBOL    AUTO      ---     ---   Data
      ---         BLOCKEND  LVL=1     ---     ---   
      025C80H     LINE      ---       ---     ---   #491
      025C92H     LINE      ---       ---     ---   #492
      025C92H     LINE      ---       ---     ---   #493
      025C9CH     LINE      ---       ---     ---   #496
      025CB2H     LINE      ---       ---     ---   #498
      025CB8H     LINE      ---       ---     ---   #499
      025CC0H     LINE      ---       ---     ---   #500
      025CC6H     LINE      ---       ---     ---   #501
      025CCCH     LINE      ---       ---     ---   #503
      025CE6H     LINE      ---       ---     ---   #505
      025CFCH     LINE      ---       ---     ---   #507
      ---         BLOCKEND  LVL=0     ---     ---   

      025D08H     BLOCK     LVL=0     003CH   ---   BDGP_StartWritingParametrs
      000048H     SYMBOL    REG       ---     ---   rangeIndex
      025D08H     LINE      ---       ---     ---   #509
      025D08H     LINE      ---       ---     ---   #511
      025D42H     LINE      ---       ---     ---   #512
      ---         BLOCKEND  LVL=0     ---     ---   

      025D44H     BLOCK     LVL=0     0014H   ---   BDGP_Start
      025D44H     LINE      ---       ---     ---   #514
      025D44H     LINE      ---       ---     ---   #516
      025D56H     LINE      ---       ---     ---   #517
      ---         BLOCKEND  LVL=0     ---     ---   

      025D58H     BLOCK     LVL=0     0028H   ---   BDGP_ForcedStart
      000048H     SYMBOL    REG       ---     ---   rangeNumber
      025D5AH     BLOCK     LVL=1     0022H   ---   
      000000H     SYMBOL    AUTO      ---     ---   pData
      ---         BLOCKEND  LVL=1     ---     ---   
      025D58H     LINE      ---       ---     ---   #518
      025D5AH     LINE      ---       ---     ---   #519
      025D5AH     LINE      ---       ---     ---   #523
      025D60H     LINE      ---       ---     ---   #524
      025D66H     LINE      ---       ---     ---   #526
      025D7CH     LINE      ---       ---     ---   #527
      ---         BLOCKEND  LVL=0     ---     ---   

      025D80H     BLOCK     LVL=0     0014H   ---   BDGP_Stop
L166 LINKER/LOCATER V5.25                                                             12/14/2017  11:31:13  PAGE 70


      025D80H     LINE      ---       ---     ---   #529
      025D80H     LINE      ---       ---     ---   #531
      025D92H     LINE      ---       ---     ---   #532
      ---         BLOCKEND  LVL=0     ---     ---   

      025D94H     BLOCK     LVL=0     0454H   ---   BDGP_InsertParametrs
      000008H     SYMBOL    REG       ---     ---   regID
      00000EH     SYMBOL    REG       ---     ---   pData
      025DA0H     BLOCK     LVL=1     043EH   ---   
      000000H     SYMBOL    AUTO      ---     ---   rangesPack
      00004DH     SYMBOL    REG       ---     ---   rangeIndex
      ---         BLOCKEND  LVL=1     ---     ---   
      025D94H     LINE      ---       ---     ---   #534
      025DA0H     LINE      ---       ---     ---   #535
      025DA0H     LINE      ---       ---     ---   #536
      025DA8H     LINE      ---       ---     ---   #537
      025DAAH     LINE      ---       ---     ---   #539
      025DB2H     LINE      ---       ---     ---   #540
      025DBCH     LINE      ---       ---     ---   #541
      025DBCH     LINE      ---       ---     ---   #544
      025DC6H     LINE      ---       ---     ---   #546
      025DECH     LINE      ---       ---     ---   #548
      025DECH     LINE      ---       ---     ---   #550
      025E3AH     LINE      ---       ---     ---   #552
      025E4CH     LINE      ---       ---     ---   #553
      025E5EH     LINE      ---       ---     ---   #554
      025E62H     LINE      ---       ---     ---   #556
      025E72H     LINE      ---       ---     ---   #559
      025E76H     LINE      ---       ---     ---   #561
      025E76H     LINE      ---       ---     ---   #563
      025EA8H     LINE      ---       ---     ---   #564
      025EB8H     LINE      ---       ---     ---   #565
      025EBCH     LINE      ---       ---     ---   #567
      025EBCH     LINE      ---       ---     ---   #569
      025EEEH     LINE      ---       ---     ---   #570
      025EFEH     LINE      ---       ---     ---   #571
      025F00H     LINE      ---       ---     ---   #573
      025F00H     LINE      ---       ---     ---   #575
      025F32H     LINE      ---       ---     ---   #576
      025F42H     LINE      ---       ---     ---   #577
      025F44H     LINE      ---       ---     ---   #579
      025F44H     LINE      ---       ---     ---   #581
      025F76H     LINE      ---       ---     ---   #582
      025FA8H     LINE      ---       ---     ---   #584
      025FAEH     LINE      ---       ---     ---   #585
      025FBCH     LINE      ---       ---     ---   #587
      025FC0H     LINE      ---       ---     ---   #588
      025FC0H     LINE      ---       ---     ---   #589
      025FC0H     LINE      ---       ---     ---   #590
      025FC0H     LINE      ---       ---     ---   #592
      025FCAH     LINE      ---       ---     ---   #594
      025FFAH     LINE      ---       ---     ---   #596
      025FFAH     LINE      ---       ---     ---   #598
      02600CH     LINE      ---       ---     ---   #599
      02605CH     LINE      ---       ---     ---   #601
      026060H     LINE      ---       ---     ---   #603
      02609AH     LINE      ---       ---     ---   #604
L166 LINKER/LOCATER V5.25                                                             12/14/2017  11:31:13  PAGE 71


      02609EH     LINE      ---       ---     ---   #606
      02609EH     LINE      ---       ---     ---   #608
      0260D8H     LINE      ---       ---     ---   #609
      0260DCH     LINE      ---       ---     ---   #611
      0260DCH     LINE      ---       ---     ---   #613
      026116H     LINE      ---       ---     ---   #614
      026118H     LINE      ---       ---     ---   #616
      026118H     LINE      ---       ---     ---   #618
      026142H     LINE      ---       ---     ---   #619
      026150H     LINE      ---       ---     ---   #620
      02616CH     LINE      ---       ---     ---   #623
      026190H     LINE      ---       ---     ---   #624
      026192H     LINE      ---       ---     ---   #629
      026192H     LINE      ---       ---     ---   #632
      026198H     LINE      ---       ---     ---   #633
      02619EH     LINE      ---       ---     ---   #634
      0261A0H     LINE      ---       ---     ---   #637
      0261B8H     LINE      ---       ---     ---   #638
      0261B8H     LINE      ---       ---     ---   #641
      0261BAH     LINE      ---       ---     ---   #644
      0261BAH     LINE      ---       ---     ---   #647
      0261C0H     LINE      ---       ---     ---   #648
      0261DAH     LINE      ---       ---     ---   #650
      0261DEH     LINE      ---       ---     ---   #651
      0261DEH     LINE      ---       ---     ---   #652
      0261DEH     LINE      ---       ---     ---   #653
      ---         BLOCKEND  LVL=0     ---     ---   

      0261E8H     BLOCK     LVL=0     01FEH   ---   BDGP_BackgroundAccumulation
      000004H     SYMBOL    AUTO      ---     ---   pData
      0261F4H     BLOCK     LVL=1     01E6H   ---   
      00004BH     SYMBOL    REG       ---     ---   i
      000000H     SYMBOL    AUTO      ---     ---   fCurrentData
      ---         BLOCKEND  LVL=1     ---     ---   
      0261E8H     LINE      ---       ---     ---   #659
      0261F4H     LINE      ---       ---     ---   #660
      0261F4H     LINE      ---       ---     ---   #661
      0261F6H     LINE      ---       ---     ---   #663
      0261FEH     LINE      ---       ---     ---   #665
      02620EH     LINE      ---       ---     ---   #666
      026210H     LINE      ---       ---     ---   #667
      0262F2H     LINE      ---       ---     ---   #669
      026312H     LINE      ---       ---     ---   #670
      02631EH     LINE      ---       ---     ---   #671
      02634AH     LINE      ---       ---     ---   #672
      02635CH     LINE      ---       ---     ---   #673
      02635CH     LINE      ---       ---     ---   #674
      026374H     LINE      ---       ---     ---   #675
      02637EH     LINE      ---       ---     ---   #676
      0263A0H     LINE      ---       ---     ---   #677
      0263C2H     LINE      ---       ---     ---   #679
      0263D4H     LINE      ---       ---     ---   #680
      0263DAH     LINE      ---       ---     ---   #681
      ---         BLOCKEND  LVL=0     ---     ---   

      0263E6H     BLOCK     LVL=0     0032H   ---   BDGP_ResetBackgroundData
      0263E6H     LINE      ---       ---     ---   #683
L166 LINKER/LOCATER V5.25                                                             12/14/2017  11:31:13  PAGE 72


      0263E6H     LINE      ---       ---     ---   #685
      0263F6H     LINE      ---       ---     ---   #686
      026406H     LINE      ---       ---     ---   #688
      02640EH     LINE      ---       ---     ---   #689
      026416H     LINE      ---       ---     ---   #690
      ---         BLOCKEND  LVL=0     ---     ---   

      026418H     BLOCK     LVL=0     0200H   ---   BDGP_InsertDataNew
      000008H     SYMBOL    REG       ---     ---   regID
      00000EH     SYMBOL    REG       ---     ---   pData
      026422H     BLOCK     LVL=1     01EEH   ---   
      00004DH     SYMBOL    REG       ---     ---   activeBuffer
      ---         BLOCKEND  LVL=1     ---     ---   
      026418H     LINE      ---       ---     ---   #692
      026422H     LINE      ---       ---     ---   #693
      026422H     LINE      ---       ---     ---   #694
      02642CH     LINE      ---       ---     ---   #696
      026448H     LINE      ---       ---     ---   #699
      02644EH     LINE      ---       ---     ---   #700
      026452H     LINE      ---       ---     ---   #701
      026458H     LINE      ---       ---     ---   #702
      02645EH     LINE      ---       ---     ---   #704
      026474H     LINE      ---       ---     ---   #705
      02648AH     LINE      ---       ---     ---   #707
      02648EH     LINE      ---       ---     ---   #708
      026492H     LINE      ---       ---     ---   #711
      0264E0H     LINE      ---       ---     ---   #712
      026534H     LINE      ---       ---     ---   #713
      026588H     LINE      ---       ---     ---   #714
      0265DAH     LINE      ---       ---     ---   #716
      0265DEH     LINE      ---       ---     ---   #728
      0265E6H     LINE      ---       ---     ---   #729
      0265F2H     LINE      ---       ---     ---   #730
      0265FCH     LINE      ---       ---     ---   #732
      026606H     LINE      ---       ---     ---   #734
      026610H     LINE      ---       ---     ---   #735
      026610H     LINE      ---       ---     ---   #737
      ---         BLOCKEND  LVL=0     ---     ---   

      026618H     BLOCK     LVL=0     001EH   ---   BDGP_InsertCmd
      000008H     SYMBOL    REG       ---     ---   pData
      026618H     LINE      ---       ---     ---   #739
      026618H     LINE      ---       ---     ---   #741
      026622H     LINE      ---       ---     ---   #743
      026628H     LINE      ---       ---     ---   #746
      026634H     LINE      ---       ---     ---   #747
      ---         BLOCKEND  LVL=0     ---     ---   

      026636H     BLOCK     LVL=0     000EH   ---   BDGP_GetAverageDoseRate
      026636H     LINE      ---       ---     ---   #749
      026636H     LINE      ---       ---     ---   #751
      026642H     LINE      ---       ---     ---   #752
      ---         BLOCKEND  LVL=0     ---     ---   

      026644H     BLOCK     LVL=0     000EH   ---   BDGP_GetCurrentDoseRate
      026644H     LINE      ---       ---     ---   #753
      026644H     LINE      ---       ---     ---   #755
L166 LINKER/LOCATER V5.25                                                             12/14/2017  11:31:13  PAGE 73


      026650H     LINE      ---       ---     ---   #756
      ---         BLOCKEND  LVL=0     ---     ---   

      026652H     BLOCK     LVL=0     000AH   ---   BDGP_GetParametrs
      026652H     LINE      ---       ---     ---   #758
      026652H     LINE      ---       ---     ---   #760
      02665AH     LINE      ---       ---     ---   #761
      ---         BLOCKEND  LVL=0     ---     ---   

      02665CH     BLOCK     LVL=0     1236H   ---   BDGP_DirectionDiagramm
      00005AH     SYMBOL    AUTO      ---     ---   pData
      00005EH     SYMBOL    AUTO      ---     ---   SensCount
      00000EH     SYMBOL    REG       ---     ---   cntMin
      000060H     SYMBOL    AUTO      ---     ---   cntMax
      000064H     SYMBOL    AUTO      ---     ---   pAngleMax
      000068H     SYMBOL    AUTO      ---     ---   Mode
      026670H     BLOCK     LVL=1     1216H   ---   
      000000H     SYMBOL    AUTO      ---     ---   lIndex
      000018H     SYMBOL    AUTO      ---     ---   f
      00001AH     SYMBOL    AUTO      ---     ---   g
      00001CH     SYMBOL    AUTO      ---     ---   b
      00001EH     SYMBOL    AUTO      ---     ---   i
      000020H     SYMBOL    AUTO      ---     ---   j
      000022H     SYMBOL    AUTO      ---     ---   fK
      000026H     SYMBOL    AUTO      ---     ---   fZ
      00002AH     SYMBOL    AUTO      ---     ---   directionCoef
      00002EH     SYMBOL    AUTO      ---     ---   SignalLevel
      000032H     SYMBOL    AUTO      ---     ---   BackLevel
      000036H     SYMBOL    AUTO      ---     ---   fLHMin
      00003AH     SYMBOL    AUTO      ---     ---   fLHMax
      00003EH     SYMBOL    AUTO      ---     ---   fNLMax
      000042H     SYMBOL    AUTO      ---     ---   fNormizeKoef
      000046H     SYMBOL    AUTO      ---     ---   fCountersSum
      00004AH     SYMBOL    AUTO      ---     ---   fLog
      00004EH     SYMBOL    AUTO      ---     ---   fFirstRecalKoef
      000052H     SYMBOL    AUTO      ---     ---   fSecondRecalKoef
      000056H     SYMBOL    AUTO      ---     ---   curBDSPSettings
      ---         BLOCKEND  LVL=1     ---     ---   
      02665CH     LINE      ---       ---     ---   #763
      026670H     LINE      ---       ---     ---   #764
      026670H     LINE      ---       ---     ---   #767
      02667EH     LINE      ---       ---     ---   #768
      026686H     LINE      ---       ---     ---   #772
      02668EH     LINE      ---       ---     ---   #773
      026696H     LINE      ---       ---     ---   #775
      02669EH     LINE      ---       ---     ---   #776
      0266A6H     LINE      ---       ---     ---   #781
      0266B6H     LINE      ---       ---     ---   #782
      0266C2H     LINE      ---       ---     ---   #783
      0266CAH     LINE      ---       ---     ---   #784
      0266D4H     LINE      ---       ---     ---   #785
      0266DCH     LINE      ---       ---     ---   #786
      0266DCH     LINE      ---       ---     ---   #788
      0266E4H     LINE      ---       ---     ---   #789
      0266E4H     LINE      ---       ---     ---   #791
      0266ECH     LINE      ---       ---     ---   #792
      0266F4H     LINE      ---       ---     ---   #797
L166 LINKER/LOCATER V5.25                                                             12/14/2017  11:31:13  PAGE 74


      0266FCH     LINE      ---       ---     ---   #798
      026740H     LINE      ---       ---     ---   #799
      026750H     LINE      ---       ---     ---   #800
      026752H     LINE      ---       ---     ---   #802
      02678EH     LINE      ---       ---     ---   #803
      02679AH     LINE      ---       ---     ---   #804
      0267AAH     LINE      ---       ---     ---   #805
      0267AAH     LINE      ---       ---     ---   #807
      0267BCH     LINE      ---       ---     ---   #809
      026800H     LINE      ---       ---     ---   #810
      026866H     LINE      ---       ---     ---   #813
      026870H     LINE      ---       ---     ---   #814
      026880H     LINE      ---       ---     ---   #815
      026892H     LINE      ---       ---     ---   #816
      0268A0H     LINE      ---       ---     ---   #818
      0268BCH     LINE      ---       ---     ---   #824
      0268C2H     LINE      ---       ---     ---   #826
      0268CCH     LINE      ---       ---     ---   #828
      0268D4H     LINE      ---       ---     ---   #829
      0268F2H     LINE      ---       ---     ---   #831
      026918H     LINE      ---       ---     ---   #832
      02691CH     LINE      ---       ---     ---   #833
      02693CH     LINE      ---       ---     ---   #835
      026964H     LINE      ---       ---     ---   #836
      026966H     LINE      ---       ---     ---   #839
      026990H     LINE      ---       ---     ---   #840
      026990H     LINE      ---       ---     ---   #841
      026992H     LINE      ---       ---     ---   #843
      0269B2H     LINE      ---       ---     ---   #845
      0269DAH     LINE      ---       ---     ---   #846
      0269DCH     LINE      ---       ---     ---   #847
      0269FEH     LINE      ---       ---     ---   #849
      026A28H     LINE      ---       ---     ---   #850
      026A2AH     LINE      ---       ---     ---   #853
      026A56H     LINE      ---       ---     ---   #854
      026A56H     LINE      ---       ---     ---   #855
      026A56H     LINE      ---       ---     ---   #856
      026A6EH     LINE      ---       ---     ---   #858
      026A96H     LINE      ---       ---     ---   #860
      026AA0H     LINE      ---       ---     ---   #862
      026AAAH     LINE      ---       ---     ---   #863
      026BE0H     LINE      ---       ---     ---   #864
      026BEAH     LINE      ---       ---     ---   #865
      026D12H     LINE      ---       ---     ---   #866
      026D2AH     LINE      ---       ---     ---   #867
      026D3EH     LINE      ---       ---     ---   #869
      026D44H     LINE      ---       ---     ---   #870
      026D78H     LINE      ---       ---     ---   #871
      026DAEH     LINE      ---       ---     ---   #874
      026DB4H     LINE      ---       ---     ---   #875
      026DE8H     LINE      ---       ---     ---   #876
      026E1EH     LINE      ---       ---     ---   #879
      026E26H     LINE      ---       ---     ---   #882
      026E80H     LINE      ---       ---     ---   #884
      026E86H     LINE      ---       ---     ---   #885
      026EE4H     LINE      ---       ---     ---   #888
      026EE4H     LINE      ---       ---     ---   #891
L166 LINKER/LOCATER V5.25                                                             12/14/2017  11:31:13  PAGE 75


      026EEEH     LINE      ---       ---     ---   #893
      026F4CH     LINE      ---       ---     ---   #896
      026F64H     LINE      ---       ---     ---   #898
      026F6AH     LINE      ---       ---     ---   #900
      026FCAH     LINE      ---       ---     ---   #903
      026FDAH     LINE      ---       ---     ---   #904
      026FE0H     LINE      ---       ---     ---   #905
      027014H     LINE      ---       ---     ---   #906
      02704AH     LINE      ---       ---     ---   #908
      02708CH     LINE      ---       ---     ---   #910
      0270DAH     LINE      ---       ---     ---   #913
      0270E0H     LINE      ---       ---     ---   #915
      0271A8H     LINE      ---       ---     ---   #916
      0271BAH     LINE      ---       ---     ---   #919
      0271BAH     LINE      ---       ---     ---   #920
      0271CAH     LINE      ---       ---     ---   #922
      0271D0H     LINE      ---       ---     ---   #924
      027204H     LINE      ---       ---     ---   #925
      027228H     LINE      ---       ---     ---   #926
      027234H     LINE      ---       ---     ---   #927
      027246H     LINE      ---       ---     ---   #937
      02724EH     LINE      ---       ---     ---   #938
      0272A0H     LINE      ---       ---     ---   #939
      0272A6H     LINE      ---       ---     ---   #940
      0272F8H     LINE      ---       ---     ---   #943
      027300H     LINE      ---       ---     ---   #944
      027352H     LINE      ---       ---     ---   #945
      027358H     LINE      ---       ---     ---   #946
      0273AAH     LINE      ---       ---     ---   #948
      0273B0H     LINE      ---       ---     ---   #949
      0273B4H     LINE      ---       ---     ---   #951
      0273B4H     LINE      ---       ---     ---   #953
      0273B4H     LINE      ---       ---     ---   #955
      0273BEH     LINE      ---       ---     ---   #957
      027416H     LINE      ---       ---     ---   #959
      027430H     LINE      ---       ---     ---   #962
      027448H     LINE      ---       ---     ---   #963
      027452H     LINE      ---       ---     ---   #965
      02745CH     LINE      ---       ---     ---   #967
      027468H     LINE      ---       ---     ---   #968
      02746EH     LINE      ---       ---     ---   #972
      02747EH     LINE      ---       ---     ---   #973
      027486H     LINE      ---       ---     ---   #974
      0274D8H     LINE      ---       ---     ---   #975
      0274DEH     LINE      ---       ---     ---   #976
      02752EH     LINE      ---       ---     ---   #979
      027534H     LINE      ---       ---     ---   #980
      027568H     LINE      ---       ---     ---   #981
      02759EH     LINE      ---       ---     ---   #983
      0275A8H     LINE      ---       ---     ---   #985
      0275B6H     LINE      ---       ---     ---   #986
      0275BEH     LINE      ---       ---     ---   #987
      02763CH     LINE      ---       ---     ---   #989
      027666H     LINE      ---       ---     ---   #991
      0276A0H     LINE      ---       ---     ---   #992
      0276B0H     LINE      ---       ---     ---   #994
      0276E4H     LINE      ---       ---     ---   #995
L166 LINKER/LOCATER V5.25                                                             12/14/2017  11:31:13  PAGE 76


      0276E4H     LINE      ---       ---     ---   #996
      0276EEH     LINE      ---       ---     ---   #998
      027768H     LINE      ---       ---     ---   #999
      027778H     LINE      ---       ---     ---   #1001
      027818H     LINE      ---       ---     ---   #1002
      027818H     LINE      ---       ---     ---   #1003
      027818H     LINE      ---       ---     ---   #1005
      02781EH     LINE      ---       ---     ---   #1006
      02787EH     LINE      ---       ---     ---   #1018
      027886H     LINE      ---       ---     ---   #1020
      ---         BLOCKEND  LVL=0     ---     ---   

      027892H     BLOCK     LVL=0     0044H   ---   BDGP_GetAngularDiagram
      027896H     BLOCK     LVL=1     003AH   ---   
      00000EH     SYMBOL    REG       ---     ---   cntMin
      000006H     SYMBOL    REG       ---     ---   cntMax
      000004H     SYMBOL    REG       ---     ---   pAngleDiagramm
      ---         BLOCKEND  LVL=1     ---     ---   
      027892H     LINE      ---       ---     ---   #1021
      027896H     LINE      ---       ---     ---   #1022
      027896H     LINE      ---       ---     ---   #1023
      027896H     LINE      ---       ---     ---   #1025
      02789EH     LINE      ---       ---     ---   #1026
      0278A6H     LINE      ---       ---     ---   #1030
      0278D0H     LINE      ---       ---     ---   #1034
      0278D0H     LINE      ---       ---     ---   #1038
      ---         BLOCKEND  LVL=0     ---     ---   

      0278D6H     BLOCK     LVL=0     00E4H   ---   BDGP_DataArrayCorrection
      00004DH     SYMBOL    REG       ---     ---   oldSize
      0278D6H     LINE      ---       ---     ---   #1040
      0278DAH     LINE      ---       ---     ---   #1048
      02790CH     LINE      ---       ---     ---   #1049
      027938H     LINE      ---       ---     ---   #1051
      027972H     LINE      ---       ---     ---   #1052
      0279A8H     LINE      ---       ---     ---   #1054
      0279AEH     LINE      ---       ---     ---   #1056
      0279B6H     LINE      ---       ---     ---   #1057
      ---         BLOCKEND  LVL=0     ---     ---   

      0279BAH     BLOCK     LVL=0     014EH   ---   BDGP_BackgroundIdentification
      0279C2H     BLOCK     LVL=1     013CH   ---   
      00004BH     SYMBOL    REG       ---     ---   i
      000000H     SYMBOL    AUTO      ---     ---   fSum
      ---         BLOCKEND  LVL=1     ---     ---   
      0279BAH     LINE      ---       ---     ---   #1058
      0279C2H     LINE      ---       ---     ---   #1059
      0279C2H     LINE      ---       ---     ---   #1060
      0279C4H     LINE      ---       ---     ---   #1061
      0279CCH     LINE      ---       ---     ---   #1065
      0279DAH     LINE      ---       ---     ---   #1067
      0279DCH     LINE      ---       ---     ---   #1068
      027A2EH     LINE      ---       ---     ---   #1069
      027A38H     LINE      ---       ---     ---   #1077
      027AB4H     LINE      ---       ---     ---   #1079
      027ACEH     LINE      ---       ---     ---   #1082
      027AD8H     LINE      ---       ---     ---   #1083
L166 LINKER/LOCATER V5.25                                                             12/14/2017  11:31:13  PAGE 77


      027AE2H     LINE      ---       ---     ---   #1085
      027AE6H     LINE      ---       ---     ---   #1088
      027AE8H     LINE      ---       ---     ---   #1093
      027AF2H     LINE      ---       ---     ---   #1094
      027AFAH     LINE      ---       ---     ---   #1095
      027AFEH     LINE      ---       ---     ---   #1096
      027AFEH     LINE      ---       ---     ---   #1098
      ---         BLOCKEND  LVL=0     ---     ---   

      027B08H     BLOCK     LVL=0     06BCH   ---   BDGP_Process
      027B10H     BLOCK     LVL=1     06AAH   ---   
      000000H     SYMBOL    AUTO      ---     ---   i
      000002H     SYMBOL    AUTO      ---     ---   j
      ---         BLOCKEND  LVL=1     ---     ---   
      027B08H     LINE      ---       ---     ---   #1100
      027B10H     LINE      ---       ---     ---   #1101
      027B10H     LINE      ---       ---     ---   #1102
      027B18H     LINE      ---       ---     ---   #1106
      027B26H     LINE      ---       ---     ---   #1108
      027B2EH     LINE      ---       ---     ---   #1110
      027B3AH     LINE      ---       ---     ---   #1111
      027B54H     LINE      ---       ---     ---   #1113
      027B6CH     LINE      ---       ---     ---   #1122
      027B76H     LINE      ---       ---     ---   #1124
      027B7EH     LINE      ---       ---     ---   #1125
      027B8AH     LINE      ---       ---     ---   #1126
      027B8AH     LINE      ---       ---     ---   #1130
      027B9AH     LINE      ---       ---     ---   #1132
      027BA6H     LINE      ---       ---     ---   #1133
      027BD6H     LINE      ---       ---     ---   #1137
      027BDAH     LINE      ---       ---     ---   #1138
      027CE8H     LINE      ---       ---     ---   #1140
      027CECH     LINE      ---       ---     ---   #1141
      027CF0H     LINE      ---       ---     ---   #1144
      027CFAH     LINE      ---       ---     ---   #1145
      027D04H     LINE      ---       ---     ---   #1147
      027D1CH     LINE      ---       ---     ---   #1148
      027D34H     LINE      ---       ---     ---   #1151
      027D4CH     LINE      ---       ---     ---   #1153
      027D50H     LINE      ---       ---     ---   #1154
      027E42H     LINE      ---       ---     ---   #1155
      027E42H     LINE      ---       ---     ---   #1157
      027E54H     LINE      ---       ---     ---   #1159
      027E60H     LINE      ---       ---     ---   #1166
      027E6CH     LINE      ---       ---     ---   #1170
      027E74H     LINE      ---       ---     ---   #1171
      027E76H     LINE      ---       ---     ---   #1172
      027E80H     LINE      ---       ---     ---   #1176
      027E86H     LINE      ---       ---     ---   #1177
      027E88H     LINE      ---       ---     ---   #1178
      027E8EH     LINE      ---       ---     ---   #1179
      027E94H     LINE      ---       ---     ---   #1180
      027E94H     LINE      ---       ---     ---   #1182
      027EA0H     LINE      ---       ---     ---   #1183
      027EDEH     LINE      ---       ---     ---   #1184
      027EE4H     LINE      ---       ---     ---   #1185
      027F68H     LINE      ---       ---     ---   #1186
L166 LINKER/LOCATER V5.25                                                             12/14/2017  11:31:13  PAGE 78


      027F76H     LINE      ---       ---     ---   #1189
      027FA2H     LINE      ---       ---     ---   #1191
      027FA8H     LINE      ---       ---     ---   #1192
      027FFEH     LINE      ---       ---     ---   #1193
      028002H     LINE      ---       ---     ---   #1197
      028008H     LINE      ---       ---     ---   #1198
      028046H     LINE      ---       ---     ---   #1199
      02804CH     LINE      ---       ---     ---   #1200
      0280D0H     LINE      ---       ---     ---   #1202
      0280DEH     LINE      ---       ---     ---   #1204
      0280E4H     LINE      ---       ---     ---   #1205
      028110H     LINE      ---       ---     ---   #1207
      028116H     LINE      ---       ---     ---   #1208
      02816CH     LINE      ---       ---     ---   #1209
      02816CH     LINE      ---       ---     ---   #1211
      0281A4H     LINE      ---       ---     ---   #1214
      0281ACH     LINE      ---       ---     ---   #1215
      0281B6H     LINE      ---       ---     ---   #1216
      0281BAH     LINE      ---       ---     ---   #1217
      0281BAH     LINE      ---       ---     ---   #1220
      0281BAH     LINE      ---       ---     ---   #1221
      ---         BLOCKEND  LVL=0     ---     ---   

      0281C4H     BLOCK     LVL=0     000AH   ---   BDGP_GetMaximumAngle
      0281C4H     LINE      ---       ---     ---   #1224
      0281C4H     LINE      ---       ---     ---   #1228
      0281CCH     LINE      ---       ---     ---   #1229
      ---         BLOCKEND  LVL=0     ---     ---   

      0281CEH     BLOCK     LVL=0     000EH   ---   BDGP_GetDose
      0281CEH     LINE      ---       ---     ---   #1230
      0281CEH     LINE      ---       ---     ---   #1232
      0281DAH     LINE      ---       ---     ---   #1233
      ---         BLOCKEND  LVL=0     ---     ---   

      0281DCH     BLOCK     LVL=0     000AH   ---   BDGP_GetBackgroundState
      0281DCH     LINE      ---       ---     ---   #1234
      0281DCH     LINE      ---       ---     ---   #1236
      0281E4H     LINE      ---       ---     ---   #1237
      ---         BLOCKEND  LVL=0     ---     ---   

      0281E6H     BLOCK     LVL=0     0070H   ---   BDGP_GetOutsideFeature
      0281E6H     LINE      ---       ---     ---   #1239
      0281E6H     LINE      ---       ---     ---   #1241
      028218H     LINE      ---       ---     ---   #1242
      02821CH     LINE      ---       ---     ---   #1243
      02824EH     LINE      ---       ---     ---   #1244
      028252H     LINE      ---       ---     ---   #1246
      028254H     LINE      ---       ---     ---   #1247
      ---         BLOCKEND  LVL=0     ---     ---   
      025A18H     PUBLIC    LABEL     ---     ---   BDSP_SetMeasureNumber
      025708H     PUBLIC    LABEL     ---     ---   BDSP_GetMaximumAngle
      0229F0H     PUBLIC    LABEL     ---     ---   BDSP_StopChannel
      0252C8H     PUBLIC    LABEL     ---     ---   BDSP_ClearData
      0225B8H     PUBLIC    LABEL     ---     ---   BDSP_CalculateQuerySum
      024FF0H     PUBLIC    LABEL     ---     ---   BDSP_SpectrAccumulation
      02580CH     PUBLIC    LABEL     ---     ---   BDSP_Process
L166 LINKER/LOCATER V5.25                                                             12/14/2017  11:31:13  PAGE 79


      025A24H     PUBLIC    LABEL     ---     ---   BDSP_GetParametrs
      025518H     PUBLIC    LABEL     ---     ---   BDSP_GetChannelSpectr
      02357AH     PUBLIC    LABEL     ---     ---   BDSP_WriteParametr
      022500H     PUBLIC    LABEL     ---     ---   BDSP_CalculateIntegral
      023FD6H     PUBLIC    LABEL     ---     ---   BDSP_Identification128
      023EA6H     PUBLIC    LABEL     ---     ---   BDSP_InsertInQuery
      022B1AH     PUBLIC    LABEL     ---     ---   BDSP_SetSpectrSize
      025766H     PUBLIC    LABEL     ---     ---   BDSP_GetDoseRate
      025A7EH     PUBLIC    LABEL     ---     ---   BDSP_GetMeasureInPointData
      02364CH     PUBLIC    LABEL     ---     ---   BDSP_ChannelInitCheck
      024680H     PUBLIC    LABEL     ---     ---   BDSP_Identification
      025428H     PUBLIC    LABEL     ---     ---   BDSP_DEBUG_GetQuerySumSpectr
      023560H     PUBLIC    LABEL     ---     ---   BDSP_StartWritingParametrs
      0235F6H     PUBLIC    LABEL     ---     ---   BDSP_ParametrRequest
      02570EH     PUBLIC    LABEL     ---     ---   BDSP_GetDose
      025A2EH     PUBLIC    LABEL     ---     ---   BDSP_GetAccumQueryState
      0256FEH     PUBLIC    LABEL     ---     ---   BDSP_GetAngularDiagram
      022A54H     PUBLIC    LABEL     ---     ---   BDSP_Stop
      023552H     PUBLIC    LABEL     ---     ---   BDSP_ParametrRequests
      0257D4H     PUBLIC    LABEL     ---     ---   BDSP_GetBackgroundReady
      025560H     PUBLIC    LABEL     ---     ---   BDSP_CalculateAngularDiagram
      022A0AH     PUBLIC    LABEL     ---     ---   BDSP_Start
      0233D6H     PUBLIC    LABEL     ---     ---   BDSP_InsertCmd
      022AE2H     PUBLIC    LABEL     ---     ---   BDSP_ClearWorkData
      0226A0H     PUBLIC    LABEL     ---     ---   BDSP_MaxCounter
      023DC0H     PUBLIC    LABEL     ---     ---   BDSP_ResetBackgroundData
      022640H     PUBLIC    LABEL     ---     ---   BDSP_MinCounter
      0226FCH     PUBLIC    LABEL     ---     ---   BDSP_Reset
      02553CH     PUBLIC    LABEL     ---     ---   BDSP_GetAccumulationSpectr
      0253A2H     PUBLIC    LABEL     ---     ---   BDPS_ClearQuery
      02352AH     PUBLIC    LABEL     ---     ---   BDSP_StartCalbiration
      025402H     PUBLIC    LABEL     ---     ---   BDSP_GetCurrentSpectr
      025A6AH     PUBLIC    LABEL     ---     ---   BDSP_GetBackgroundQueryIntegral
      022A9EH     PUBLIC    LABEL     ---     ---   BDSP_SetSpectrChannelSize
      022B44H     PUBLIC    LABEL     ---     ---   BDSP_InsertData
      024FCAH     PUBLIC    LABEL     ---     ---   BDSP_StartSpectrAccumulation
      0236E0H     PUBLIC    LABEL     ---     ---   BDSP_BackgroundAccumulation
      000004H     PUBLIC    VAR       ---     ---   mSpectrStartCalibration
      00000CH     PUBLIC    VAR       ---     ---   mSpectrSize1024
      000014H     PUBLIC    VAR       ---     ---   mStopBDSP
      00001CH     PUBLIC    VAR       ---     ---   mSpectrDoseRateOn
      000024H     PUBLIC    VAR       ---     ---   mSpectrGetCorrFctr
      00002CH     PUBLIC    VAR       ---     ---   mStartBDSP
      000034H     PUBLIC    VAR       ---     ---   mResetBDSP
      00003CH     PUBLIC    VAR       ---     ---   mSpectrSize128
      000044H     PUBLIC    VAR       ---     ---   mSpectrGetDeadTime
      00004CH     PUBLIC    VAR       ---     ---   mSpectrGetAlignFctr
      050492H     SYMBOL    VAR       ---     ---   BDSPParametrs
      0504ECH     SYMBOL    VAR       ---     ---   fAccumAverageDoseRate
      0504F0H     SYMBOL    VAR       ---     ---   iJIndexNuclideIdentification
      0504F2H     SYMBOL    VAR       ---     ---   fBackgroundIntergal
      050502H     SYMBOL    VAR       ---     ---   radiationMaximum
      050504H     SYMBOL    VAR       ---     ---   BDSPAccumMode
      050506H     SYMBOL    VAR       ---     ---   BDPSChannelSize
      050508H     SYMBOL    VAR       ---     ---   NuclideIdentification
      050509H     SYMBOL    VAR       ---     ---   NuclideDetection
      05050AH     SYMBOL    VAR       ---     ---   channelStartCnt
L166 LINKER/LOCATER V5.25                                                             12/14/2017  11:31:13  PAGE 80


      05050BH     SYMBOL    VAR       ---     ---   rWritingParametrRequest
      600000H     SYMBOL    VAR       ---     ---   MeasureInPntData
      600010H     SYMBOL    VAR       ---     ---   fQuantileArray
      601020H     SYMBOL    VAR       ---     ---   BDSPData
      6218D8H     SYMBOL    VAR       ---     ---   fpBDSPAngleDiagramm

      022500H     BLOCK     LVL=0     00B8H   ---   BDSP_CalculateIntegral
      022504H     BLOCK     LVL=1     00AEH   ---   
      00000CH     SYMBOL    REG       ---     ---   i
      00000BH     SYMBOL    REG       ---     ---   j
      00000AH     SYMBOL    REG       ---     ---   k
      00000EH     SYMBOL    REG       ---     ---   integralSum
      ---         BLOCKEND  LVL=1     ---     ---   
      022500H     LINE      ---       ---     ---   #48
      022504H     LINE      ---       ---     ---   #49
      022504H     LINE      ---       ---     ---   #51
      022508H     LINE      ---       ---     ---   #54
      02250AH     LINE      ---       ---     ---   #56
      02252CH     LINE      ---       ---     ---   #57
      022530H     LINE      ---       ---     ---   #59
      022532H     LINE      ---       ---     ---   #60
      022536H     LINE      ---       ---     ---   #61
      02258CH     LINE      ---       ---     ---   #63
      0225AEH     LINE      ---       ---     ---   #64
      0225B2H     LINE      ---       ---     ---   #66
      ---         BLOCKEND  LVL=0     ---     ---   

      0225B8H     BLOCK     LVL=0     0088H   ---   BDSP_CalculateQuerySum
      00004BH     SYMBOL    REG       ---     ---   Channel
      0225C0H     BLOCK     LVL=1     0078H   ---   
      00000DH     SYMBOL    REG       ---     ---   i
      00000CH     SYMBOL    REG       ---     ---   j
      00000EH     SYMBOL    REG       ---     ---   Result
      ---         BLOCKEND  LVL=1     ---     ---   
      0225B8H     LINE      ---       ---     ---   #68
      0225C0H     LINE      ---       ---     ---   #69
      0225C0H     LINE      ---       ---     ---   #70
      0225C4H     LINE      ---       ---     ---   #71
      0225C8H     LINE      ---       ---     ---   #73
      0225C8H     LINE      ---       ---     ---   #74
      0225CAH     LINE      ---       ---     ---   #75
      02262AH     LINE      ---       ---     ---   #76
      022634H     LINE      ---       ---     ---   #81
      022638H     LINE      ---       ---     ---   #82
      ---         BLOCKEND  LVL=0     ---     ---   

      022640H     BLOCK     LVL=0     0060H   ---   BDSP_MinCounter
      000008H     SYMBOL    REG       ---     ---   minChannelIndex
      022640H     BLOCK     LVL=1     005EH   ---   
      000082H     SYMBOL    REG       ---     ---   i
      00000AH     SYMBOL    REG       ---     ---   result
      ---         BLOCKEND  LVL=1     ---     ---   
      022640H     LINE      ---       ---     ---   #84
      022640H     LINE      ---       ---     ---   #85
      022640H     LINE      ---       ---     ---   #86
      022642H     LINE      ---       ---     ---   #87
      02264AH     LINE      ---       ---     ---   #89
L166 LINKER/LOCATER V5.25                                                             12/14/2017  11:31:13  PAGE 81


      02264AH     LINE      ---       ---     ---   #91
      022670H     LINE      ---       ---     ---   #92
      022692H     LINE      ---       ---     ---   #93
      02269CH     LINE      ---       ---     ---   #96
      02269EH     LINE      ---       ---     ---   #97
      ---         BLOCKEND  LVL=0     ---     ---   

      0226A0H     BLOCK     LVL=0     005CH   ---   BDSP_MaxCounter
      000008H     SYMBOL    REG       ---     ---   maxChannelIndex
      0226A0H     BLOCK     LVL=1     005AH   ---   
      000082H     SYMBOL    REG       ---     ---   i
      00000AH     SYMBOL    REG       ---     ---   result
      ---         BLOCKEND  LVL=1     ---     ---   
      0226A0H     LINE      ---       ---     ---   #99
      0226A0H     LINE      ---       ---     ---   #100
      0226A0H     LINE      ---       ---     ---   #101
      0226A2H     LINE      ---       ---     ---   #102
      0226A6H     LINE      ---       ---     ---   #104
      0226A6H     LINE      ---       ---     ---   #106
      0226CCH     LINE      ---       ---     ---   #107
      0226EEH     LINE      ---       ---     ---   #108
      0226F8H     LINE      ---       ---     ---   #111
      0226FAH     LINE      ---       ---     ---   #112
      ---         BLOCKEND  LVL=0     ---     ---   

      0226FCH     BLOCK     LVL=0     02F4H   ---   BDSP_Reset
      0226FEH     BLOCK     LVL=1     02EEH   ---   
      00004DH     SYMBOL    REG       ---     ---   i
      ---         BLOCKEND  LVL=1     ---     ---   
      0226FCH     LINE      ---       ---     ---   #116
      0226FEH     LINE      ---       ---     ---   #117
      0226FEH     LINE      ---       ---     ---   #118
      022700H     LINE      ---       ---     ---   #120
      022704H     LINE      ---       ---     ---   #121
      022708H     LINE      ---       ---     ---   #122
      02270CH     LINE      ---       ---     ---   #124
      022714H     LINE      ---       ---     ---   #125
      02271CH     LINE      ---       ---     ---   #127
      022720H     LINE      ---       ---     ---   #129
      022728H     LINE      ---       ---     ---   #130
      02272EH     LINE      ---       ---     ---   #133
      02272EH     LINE      ---       ---     ---   #135
      022756H     LINE      ---       ---     ---   #136
      02277EH     LINE      ---       ---     ---   #137
      0227A6H     LINE      ---       ---     ---   #138
      0227CEH     LINE      ---       ---     ---   #139
      0227F6H     LINE      ---       ---     ---   #141
      02281EH     LINE      ---       ---     ---   #142
      022842H     LINE      ---       ---     ---   #143
      022864H     LINE      ---       ---     ---   #144
      022886H     LINE      ---       ---     ---   #145
      0228A8H     LINE      ---       ---     ---   #146
      0228CAH     LINE      ---       ---     ---   #147
      0228ECH     LINE      ---       ---     ---   #148
      02290EH     LINE      ---       ---     ---   #149
      022930H     LINE      ---       ---     ---   #150
      022952H     LINE      ---       ---     ---   #151
L166 LINKER/LOCATER V5.25                                                             12/14/2017  11:31:13  PAGE 82


      022974H     LINE      ---       ---     ---   #152
      022998H     LINE      ---       ---     ---   #154
      0229A2H     LINE      ---       ---     ---   #156
      0229B4H     LINE      ---       ---     ---   #157
      0229C6H     LINE      ---       ---     ---   #158
      0229D6H     LINE      ---       ---     ---   #161
      0229DAH     LINE      ---       ---     ---   #163
      0229ECH     LINE      ---       ---     ---   #164
      ---         BLOCKEND  LVL=0     ---     ---   

      0229F0H     BLOCK     LVL=0     001AH   ---   BDSP_StopChannel
      000048H     SYMBOL    REG       ---     ---   Channel
      0229F0H     LINE      ---       ---     ---   #165
      0229F0H     LINE      ---       ---     ---   #167
      022A08H     LINE      ---       ---     ---   #168
      ---         BLOCKEND  LVL=0     ---     ---   

      022A0AH     BLOCK     LVL=0     004AH   ---   BDSP_Start
      022A0AH     LINE      ---       ---     ---   #170
      022A0AH     LINE      ---       ---     ---   #172
      022A1CH     LINE      ---       ---     ---   #173
      022A2EH     LINE      ---       ---     ---   #174
      022A40H     LINE      ---       ---     ---   #175
      022A52H     LINE      ---       ---     ---   #177
      ---         BLOCKEND  LVL=0     ---     ---   

      022A54H     BLOCK     LVL=0     004AH   ---   BDSP_Stop
      022A54H     LINE      ---       ---     ---   #179
      022A54H     LINE      ---       ---     ---   #187
      022A66H     LINE      ---       ---     ---   #188
      022A78H     LINE      ---       ---     ---   #189
      022A8AH     LINE      ---       ---     ---   #190
      022A9CH     LINE      ---       ---     ---   #191
      ---         BLOCKEND  LVL=0     ---     ---   

      022A9EH     BLOCK     LVL=0     0044H   ---   BDSP_SetSpectrChannelSize
      000008H     SYMBOL    REG       ---     ---   eMode
      00004DH     SYMBOL    REG       ---     ---   Channel
      022A9EH     LINE      ---       ---     ---   #192
      022AA2H     LINE      ---       ---     ---   #197
      022AB0H     LINE      ---       ---     ---   #199
      022AB0H     LINE      ---       ---     ---   #201
      022AC6H     LINE      ---       ---     ---   #202
      022AC8H     LINE      ---       ---     ---   #203
      022AC8H     LINE      ---       ---     ---   #205
      022ADEH     LINE      ---       ---     ---   #206
      022ADEH     LINE      ---       ---     ---   #207
      022ADEH     LINE      ---       ---     ---   #209
      ---         BLOCKEND  LVL=0     ---     ---   

      022AE2H     BLOCK     LVL=0     0038H   ---   BDSP_ClearWorkData
      022AE4H     BLOCK     LVL=1     0032H   ---   
      00004DH     SYMBOL    REG       ---     ---   i
      ---         BLOCKEND  LVL=1     ---     ---   
      022AE2H     LINE      ---       ---     ---   #213
      022AE4H     LINE      ---       ---     ---   #214
      022AE4H     LINE      ---       ---     ---   #215
L166 LINKER/LOCATER V5.25                                                             12/14/2017  11:31:13  PAGE 83


      022AE6H     LINE      ---       ---     ---   #217
      022AE6H     LINE      ---       ---     ---   #218
      022B16H     LINE      ---       ---     ---   #219
      ---         BLOCKEND  LVL=0     ---     ---   

      022B1AH     BLOCK     LVL=0     002AH   ---   BDSP_SetSpectrSize
      00000DH     SYMBOL    REG       ---     ---   eMode
      022B1AH     LINE      ---       ---     ---   #221
      022B1EH     LINE      ---       ---     ---   #223
      022B24H     LINE      ---       ---     ---   #224
      022B2CH     LINE      ---       ---     ---   #225
      022B34H     LINE      ---       ---     ---   #226
      022B3CH     LINE      ---       ---     ---   #228
      022B40H     LINE      ---       ---     ---   #230
      ---         BLOCKEND  LVL=0     ---     ---   

      022B44H     BLOCK     LVL=0     0892H   ---   BDSP_InsertData
      00004FH     SYMBOL    REG       ---     ---   Channel
      000006H     SYMBOL    AUTO      ---     ---   pData
      022B52H     BLOCK     LVL=1     0878H   ---   
      000000H     SYMBOL    AUTO      ---     ---   time
      000002H     SYMBOL    AUTO      ---     ---   length
      000004H     SYMBOL    AUTO      ---     ---   activeBuffer
      000004H     SYMBOL    REG       ---     ---   pParam
      ---         BLOCKEND  LVL=1     ---     ---   
      022B44H     LINE      ---       ---     ---   #233
      022B52H     LINE      ---       ---     ---   #234
      022B52H     LINE      ---       ---     ---   #237
      022B52H     LINE      ---       ---     ---   #239
      022B52H     LINE      ---       ---     ---   #240
      022B56H     LINE      ---       ---     ---   #241
      022B5AH     LINE      ---       ---     ---   #243
      022B84H     LINE      ---       ---     ---   #244
      022B84H     LINE      ---       ---     ---   #247
      022BC6H     LINE      ---       ---     ---   #252
      022BD6H     LINE      ---       ---     ---   #253
      022BEAH     LINE      ---       ---     ---   #254
      022BFCH     LINE      ---       ---     ---   #256
      022C10H     LINE      ---       ---     ---   #257
      022C16H     LINE      ---       ---     ---   #258
      022C1EH     LINE      ---       ---     ---   #259
      022C22H     LINE      ---       ---     ---   #260
      022C28H     LINE      ---       ---     ---   #261
      022C28H     LINE      ---       ---     ---   #262
      022C2EH     LINE      ---       ---     ---   #263
      022C36H     LINE      ---       ---     ---   #264
      022C3AH     LINE      ---       ---     ---   #265
      022C40H     LINE      ---       ---     ---   #266
      022C40H     LINE      ---       ---     ---   #267
      022C46H     LINE      ---       ---     ---   #268
      022C4EH     LINE      ---       ---     ---   #269
      022C52H     LINE      ---       ---     ---   #270
      022C58H     LINE      ---       ---     ---   #271
      022C58H     LINE      ---       ---     ---   #272
      022C5EH     LINE      ---       ---     ---   #273
      022C66H     LINE      ---       ---     ---   #274
      022C6AH     LINE      ---       ---     ---   #275
L166 LINKER/LOCATER V5.25                                                             12/14/2017  11:31:13  PAGE 84


      022C70H     LINE      ---       ---     ---   #276
      022C70H     LINE      ---       ---     ---   #279
      022C70H     LINE      ---       ---     ---   #280
      022C70H     LINE      ---       ---     ---   #282
      022C70H     LINE      ---       ---     ---   #286
      022C78H     LINE      ---       ---     ---   #288
      022C9AH     LINE      ---       ---     ---   #289
      022CC2H     LINE      ---       ---     ---   #293
      022CCAH     LINE      ---       ---     ---   #295
      022CD0H     LINE      ---       ---     ---   #297
      022CD8H     LINE      ---       ---     ---   #298
      022CD8H     LINE      ---       ---     ---   #300
      022CD8H     LINE      ---       ---     ---   #301
      022CE2H     LINE      ---       ---     ---   #306
      022D14H     LINE      ---       ---     ---   #307
      022D1AH     LINE      ---       ---     ---   #308
      022D38H     LINE      ---       ---     ---   #310
      022D3EH     LINE      ---       ---     ---   #311
      022D48H     LINE      ---       ---     ---   #312
      022D4AH     LINE      ---       ---     ---   #314
      022D52H     LINE      ---       ---     ---   #315
      022D52H     LINE      ---       ---     ---   #316
      022D54H     LINE      ---       ---     ---   #318
      022D5AH     LINE      ---       ---     ---   #319
      022D7AH     LINE      ---       ---     ---   #320
      022D7CH     LINE      ---       ---     ---   #322
      022D8EH     LINE      ---       ---     ---   #323
      022D8EH     LINE      ---       ---     ---   #324
      022D8EH     LINE      ---       ---     ---   #325
      022D8EH     LINE      ---       ---     ---   #327
      022DC0H     LINE      ---       ---     ---   #328
      022DC6H     LINE      ---       ---     ---   #329
      022DE4H     LINE      ---       ---     ---   #331
      022DEAH     LINE      ---       ---     ---   #332
      022DF4H     LINE      ---       ---     ---   #333
      022DF6H     LINE      ---       ---     ---   #335
      022DFEH     LINE      ---       ---     ---   #336
      022DFEH     LINE      ---       ---     ---   #337
      022E00H     LINE      ---       ---     ---   #339
      022E06H     LINE      ---       ---     ---   #340
      022E26H     LINE      ---       ---     ---   #341
      022E28H     LINE      ---       ---     ---   #343
      022E3AH     LINE      ---       ---     ---   #344
      022E3AH     LINE      ---       ---     ---   #345
      022E3AH     LINE      ---       ---     ---   #346
      022E3AH     LINE      ---       ---     ---   #348
      022E6CH     LINE      ---       ---     ---   #349
      022E72H     LINE      ---       ---     ---   #350
      022E84H     LINE      ---       ---     ---   #352
      022E8AH     LINE      ---       ---     ---   #353
      022E94H     LINE      ---       ---     ---   #354
      022E96H     LINE      ---       ---     ---   #357
      022E9AH     LINE      ---       ---     ---   #358
      022E9AH     LINE      ---       ---     ---   #359
      022E9CH     LINE      ---       ---     ---   #361
      022EA2H     LINE      ---       ---     ---   #362
      022EB6H     LINE      ---       ---     ---   #363
L166 LINKER/LOCATER V5.25                                                             12/14/2017  11:31:13  PAGE 85


      022EB8H     LINE      ---       ---     ---   #365
      022EBCH     LINE      ---       ---     ---   #366
      022EC0H     LINE      ---       ---     ---   #367
      022EC0H     LINE      ---       ---     ---   #368
      022EC0H     LINE      ---       ---     ---   #369
      022EC0H     LINE      ---       ---     ---   #374
      022EECH     LINE      ---       ---     ---   #376
      022F0EH     LINE      ---       ---     ---   #377
      022F32H     LINE      ---       ---     ---   #379
      022F42H     LINE      ---       ---     ---   #382
      022F6AH     LINE      ---       ---     ---   #383
      022F80H     LINE      ---       ---     ---   #384
      022F84H     LINE      ---       ---     ---   #387
      022FB2H     LINE      ---       ---     ---   #389
      02301AH     LINE      ---       ---     ---   #390
      02309EH     LINE      ---       ---     ---   #391
      023126H     LINE      ---       ---     ---   #392
      0231AEH     LINE      ---       ---     ---   #394
      0231D2H     LINE      ---       ---     ---   #396
      0231D4H     LINE      ---       ---     ---   #397
      0231DAH     LINE      ---       ---     ---   #399
      023206H     LINE      ---       ---     ---   #403
      023266H     LINE      ---       ---     ---   #406
      02328AH     LINE      ---       ---     ---   #407
      02328AH     LINE      ---       ---     ---   #409
      0232BEH     LINE      ---       ---     ---   #419
      0232C4H     LINE      ---       ---     ---   #420
      0232D8H     LINE      ---       ---     ---   #421
      0232FEH     LINE      ---       ---     ---   #422
      0232FEH     LINE      ---       ---     ---   #423
      023308H     LINE      ---       ---     ---   #424
      023330H     LINE      ---       ---     ---   #425
      023358H     LINE      ---       ---     ---   #426
      023358H     LINE      ---       ---     ---   #429
      023382H     LINE      ---       ---     ---   #430
      02338AH     LINE      ---       ---     ---   #432
      023390H     LINE      ---       ---     ---   #434
      0233A6H     LINE      ---       ---     ---   #437
      0233CAH     LINE      ---       ---     ---   #438
      ---         BLOCKEND  LVL=0     ---     ---   

      0233D6H     BLOCK     LVL=0     0154H   ---   BDSP_InsertCmd
      00004DH     SYMBOL    REG       ---     ---   Channel
      00000EH     SYMBOL    REG       ---     ---   pData
      0233E2H     BLOCK     LVL=1     0140H   ---   
      000084H     SYMBOL    REG       ---     ---   Serial
      ---         BLOCKEND  LVL=1     ---     ---   
      0233D6H     LINE      ---       ---     ---   #442
      0233E2H     LINE      ---       ---     ---   #443
      0233E2H     LINE      ---       ---     ---   #444
      0233E4H     LINE      ---       ---     ---   #447
      0233EAH     LINE      ---       ---     ---   #450
      023432H     LINE      ---       ---     ---   #452
      02343EH     LINE      ---       ---     ---   #454
      02346AH     LINE      ---       ---     ---   #456
      023470H     LINE      ---       ---     ---   #457
      02347CH     LINE      ---       ---     ---   #461
L166 LINKER/LOCATER V5.25                                                             12/14/2017  11:31:13  PAGE 86


      02348AH     LINE      ---       ---     ---   #464
      02348CH     LINE      ---       ---     ---   #469
      0234A4H     LINE      ---       ---     ---   #472
      0234D2H     LINE      ---       ---     ---   #475
      0234E8H     LINE      ---       ---     ---   #477
      023518H     LINE      ---       ---     ---   #479
      02351CH     LINE      ---       ---     ---   #481
      023522H     LINE      ---       ---     ---   #482
      023522H     LINE      ---       ---     ---   #484
      023522H     LINE      ---       ---     ---   #485
      ---         BLOCKEND  LVL=0     ---     ---   

      02352AH     BLOCK     LVL=0     0028H   ---   BDSP_StartCalbiration
      000048H     SYMBOL    REG       ---     ---   Channel
      02352AH     LINE      ---       ---     ---   #486
      02352AH     LINE      ---       ---     ---   #488
      023550H     LINE      ---       ---     ---   #489
      ---         BLOCKEND  LVL=0     ---     ---   

      023552H     BLOCK     LVL=0     000EH   ---   BDSP_ParametrRequests
      023552H     LINE      ---       ---     ---   #492
      023552H     LINE      ---       ---     ---   #497
      023556H     LINE      ---       ---     ---   #498
      02355EH     LINE      ---       ---     ---   #500
      ---         BLOCKEND  LVL=0     ---     ---   

      023560H     BLOCK     LVL=0     001AH   ---   BDSP_StartWritingParametrs
      023560H     LINE      ---       ---     ---   #501
      023560H     LINE      ---       ---     ---   #503
      023566H     LINE      ---       ---     ---   #505
      023578H     LINE      ---       ---     ---   #507
      ---         BLOCKEND  LVL=0     ---     ---   

      02357AH     BLOCK     LVL=0     007CH   ---   BDSP_WriteParametr
      000008H     SYMBOL    AUTO      ---     ---   Channel
      00000AH     SYMBOL    AUTO      ---     ---   paramIndex
      00000EH     SYMBOL    REG       ---     ---   pParam
      00000DH     SYMBOL    REG       ---     ---   dataSize
      02358EH     BLOCK     LVL=1     005CH   ---   
      000000H     SYMBOL    AUTO      ---     ---   msgData
      ---         BLOCKEND  LVL=1     ---     ---   
      02357AH     LINE      ---       ---     ---   #510
      02358EH     LINE      ---       ---     ---   #511
      02358EH     LINE      ---       ---     ---   #514
      0235A2H     LINE      ---       ---     ---   #516
      0235A6H     LINE      ---       ---     ---   #517
      0235AEH     LINE      ---       ---     ---   #518
      0235B4H     LINE      ---       ---     ---   #520
      0235CCH     LINE      ---       ---     ---   #522
      0235EAH     LINE      ---       ---     ---   #523
      ---         BLOCKEND  LVL=0     ---     ---   

      0235F6H     BLOCK     LVL=0     0056H   ---   BDSP_ParametrRequest
      00004EH     SYMBOL    REG       ---     ---   Channel
      00004DH     SYMBOL    REG       ---     ---   paramIndex
      023602H     BLOCK     LVL=1     0040H   ---   
      000000H     SYMBOL    AUTO      ---     ---   msgData
L166 LINKER/LOCATER V5.25                                                             12/14/2017  11:31:13  PAGE 87


      ---         BLOCKEND  LVL=1     ---     ---   
      0235F6H     LINE      ---       ---     ---   #524
      023602H     LINE      ---       ---     ---   #525
      023602H     LINE      ---       ---     ---   #527
      023616H     LINE      ---       ---     ---   #529
      02361AH     LINE      ---       ---     ---   #530
      023620H     LINE      ---       ---     ---   #531
      023626H     LINE      ---       ---     ---   #533
      023642H     LINE      ---       ---     ---   #534
      ---         BLOCKEND  LVL=0     ---     ---   

      02364CH     BLOCK     LVL=0     0094H   ---   BDSP_ChannelInitCheck
      02364CH     BLOCK     LVL=1     0092H   ---   
      000009H     SYMBOL    REG       ---     ---   Status
      ---         BLOCKEND  LVL=1     ---     ---   
      02364CH     LINE      ---       ---     ---   #535
      02364CH     LINE      ---       ---     ---   #536
      02364CH     LINE      ---       ---     ---   #537
      02364EH     LINE      ---       ---     ---   #550
      023696H     LINE      ---       ---     ---   #551
      023698H     LINE      ---       ---     ---   #552
      02369AH     LINE      ---       ---     ---   #554
      0236DAH     LINE      ---       ---     ---   #558
      0236DCH     LINE      ---       ---     ---   #559
      0236DCH     LINE      ---       ---     ---   #561
      0236DEH     LINE      ---       ---     ---   #562
      ---         BLOCKEND  LVL=0     ---     ---   

      0236E0H     BLOCK     LVL=0     06E0H   ---   BDSP_BackgroundAccumulation
      000008H     SYMBOL    AUTO      ---     ---   Channel
      00000AH     SYMBOL    AUTO      ---     ---   pData
      0236F0H     BLOCK     LVL=1     06C4H   ---   
      000000H     SYMBOL    AUTO      ---     ---   i
      000002H     SYMBOL    AUTO      ---     ---   sI
      000004H     SYMBOL    AUTO      ---     ---   temp
      ---         BLOCKEND  LVL=1     ---     ---   
      0236E0H     LINE      ---       ---     ---   #564
      0236F0H     LINE      ---       ---     ---   #565
      0236F0H     LINE      ---       ---     ---   #566
      0236F8H     LINE      ---       ---     ---   #568
      023700H     LINE      ---       ---     ---   #570
      023730H     LINE      ---       ---     ---   #571
      023734H     LINE      ---       ---     ---   #572
      0237AAH     LINE      ---       ---     ---   #573
      0237B8H     LINE      ---       ---     ---   #574
      023814H     LINE      ---       ---     ---   #576
      02383EH     LINE      ---       ---     ---   #577
      02383EH     LINE      ---       ---     ---   #579
      023886H     LINE      ---       ---     ---   #581
      02388CH     LINE      ---       ---     ---   #582
      0238B2H     LINE      ---       ---     ---   #589
      0238E2H     LINE      ---       ---     ---   #593
      023946H     LINE      ---       ---     ---   #595
      023958H     LINE      ---       ---     ---   #597
      023960H     LINE      ---       ---     ---   #598
      023964H     LINE      ---       ---     ---   #600
      023976H     LINE      ---       ---     ---   #601
L166 LINKER/LOCATER V5.25                                                             12/14/2017  11:31:13  PAGE 88


      02397CH     LINE      ---       ---     ---   #605
      02397CH     LINE      ---       ---     ---   #607
      023982H     LINE      ---       ---     ---   #608
      023984H     LINE      ---       ---     ---   #612
      023BD2H     LINE      ---       ---     ---   #613
      023BDCH     LINE      ---       ---     ---   #614
      023BECH     LINE      ---       ---     ---   #617
      023BF6H     LINE      ---       ---     ---   #619
      023BF8H     LINE      ---       ---     ---   #620
      023C4CH     LINE      ---       ---     ---   #622
      023C9CH     LINE      ---       ---     ---   #623
      023CAAH     LINE      ---       ---     ---   #626
      023CC6H     LINE      ---       ---     ---   #628
      023CDEH     LINE      ---       ---     ---   #630
      023CE8H     LINE      ---       ---     ---   #633
      023CEAH     LINE      ---       ---     ---   #634
      023D3EH     LINE      ---       ---     ---   #636
      023D8EH     LINE      ---       ---     ---   #637
      023D9CH     LINE      ---       ---     ---   #638
      023DB4H     LINE      ---       ---     ---   #640
      ---         BLOCKEND  LVL=0     ---     ---   

      023DC0H     BLOCK     LVL=0     00E6H   ---   BDSP_ResetBackgroundData
      023DC2H     BLOCK     LVL=1     00E0H   ---   
      00004DH     SYMBOL    REG       ---     ---   i
      ---         BLOCKEND  LVL=1     ---     ---   
      023DC0H     LINE      ---       ---     ---   #642
      023DC2H     LINE      ---       ---     ---   #643
      023DC2H     LINE      ---       ---     ---   #644
      023DC4H     LINE      ---       ---     ---   #647
      023DC8H     LINE      ---       ---     ---   #648
      023DD0H     LINE      ---       ---     ---   #650
      023DD2H     LINE      ---       ---     ---   #651
      023DFAH     LINE      ---       ---     ---   #652
      023E20H     LINE      ---       ---     ---   #653
      023E46H     LINE      ---       ---     ---   #655
      023E6EH     LINE      ---       ---     ---   #656
      023E96H     LINE      ---       ---     ---   #658
      023E9EH     LINE      ---       ---     ---   #659
      023EA2H     LINE      ---       ---     ---   #660
      ---         BLOCKEND  LVL=0     ---     ---   

      023EA6H     BLOCK     LVL=0     0130H   ---   BDSP_InsertInQuery
      00000EH     SYMBOL    REG       ---     ---   pData
      00004DH     SYMBOL    REG       ---     ---   Channel
      023EB4H     BLOCK     LVL=1     0118H   ---   
      000000H     SYMBOL    AUTO      ---     ---   sBufSize
      ---         BLOCKEND  LVL=1     ---     ---   
      023EA6H     LINE      ---       ---     ---   #662
      023EB4H     LINE      ---       ---     ---   #663
      023EB4H     LINE      ---       ---     ---   #664
      023EB4H     LINE      ---       ---     ---   #665
      023EB8H     LINE      ---       ---     ---   #666
      023EB8H     LINE      ---       ---     ---   #668
      023EE0H     LINE      ---       ---     ---   #670
      023F1CH     LINE      ---       ---     ---   #671
      023F44H     LINE      ---       ---     ---   #672
L166 LINKER/LOCATER V5.25                                                             12/14/2017  11:31:13  PAGE 89


      023F46H     LINE      ---       ---     ---   #675
      023F8AH     LINE      ---       ---     ---   #677
      023FCCH     LINE      ---       ---     ---   #678
      023FCCH     LINE      ---       ---     ---   #679
      ---         BLOCKEND  LVL=0     ---     ---   

      023FD6H     BLOCK     LVL=0     06AAH   ---   BDSP_Identification128
      023FE0H     BLOCK     LVL=1     0694H   ---   
      000000H     SYMBOL    AUTO      ---     ---   fQuantile
      000004H     SYMBOL    AUTO      ---     ---   pSumQueryData
      000008H     SYMBOL    AUTO      ---     ---   jNuclideIndex
      00000AH     SYMBOL    AUTO      ---     ---   maxIntegralIndex
      00000CH     SYMBOL    AUTO      ---     ---   i
      00000EH     SYMBOL    AUTO      ---     ---   j
      000010H     SYMBOL    AUTO      ---     ---   k
      000012H     SYMBOL    AUTO      ---     ---   start
      000014H     SYMBOL    AUTO      ---     ---   end
      ---         BLOCKEND  LVL=1     ---     ---   
      023FD6H     LINE      ---       ---     ---   #682
      023FE0H     LINE      ---       ---     ---   #683
      023FE0H     LINE      ---       ---     ---   #684
      023FE8H     LINE      ---       ---     ---   #685
      023FF0H     LINE      ---       ---     ---   #686
      023FF4H     LINE      ---       ---     ---   #687
      023FF8H     LINE      ---       ---     ---   #688
      02400CH     LINE      ---       ---     ---   #689
      02400CH     LINE      ---       ---     ---   #691
      024010H     LINE      ---       ---     ---   #692
      024022H     LINE      ---       ---     ---   #694
      024034H     LINE      ---       ---     ---   #696
      02403AH     LINE      ---       ---     ---   #698
      024062H     LINE      ---       ---     ---   #699
      02408AH     LINE      ---       ---     ---   #701
      0240BEH     LINE      ---       ---     ---   #702
      0240CCH     LINE      ---       ---     ---   #705
      0240D2H     LINE      ---       ---     ---   #707
      0240DEH     LINE      ---       ---     ---   #709
      02416CH     LINE      ---       ---     ---   #710
      024172H     LINE      ---       ---     ---   #711
      0241EAH     LINE      ---       ---     ---   #712
      024202H     LINE      ---       ---     ---   #713
      024218H     LINE      ---       ---     ---   #714
      024252H     LINE      ---       ---     ---   #716
      024306H     LINE      ---       ---     ---   #717
      024310H     LINE      ---       ---     ---   #718
      024318H     LINE      ---       ---     ---   #721
      024338H     LINE      ---       ---     ---   #722
      024360H     LINE      ---       ---     ---   #724
      024374H     LINE      ---       ---     ---   #729
      02437AH     LINE      ---       ---     ---   #732
      024380H     LINE      ---       ---     ---   #734
      0243C2H     LINE      ---       ---     ---   #736
      0243C8H     LINE      ---       ---     ---   #737
      0243CCH     LINE      ---       ---     ---   #738
      0243CEH     LINE      ---       ---     ---   #744
      024410H     LINE      ---       ---     ---   #745
      024412H     LINE      ---       ---     ---   #749
L166 LINKER/LOCATER V5.25                                                             12/14/2017  11:31:13  PAGE 90


      02441CH     LINE      ---       ---     ---   #750
      024420H     LINE      ---       ---     ---   #752
      024424H     LINE      ---       ---     ---   #753
      024428H     LINE      ---       ---     ---   #754
      024428H     LINE      ---       ---     ---   #756
      024428H     LINE      ---       ---     ---   #757
      02443AH     LINE      ---       ---     ---   #762
      024444H     LINE      ---       ---     ---   #765
      024456H     LINE      ---       ---     ---   #767
      02445EH     LINE      ---       ---     ---   #768
      0245B6H     LINE      ---       ---     ---   #771
      0245BEH     LINE      ---       ---     ---   #773
      0245C4H     LINE      ---       ---     ---   #774
      0245CAH     LINE      ---       ---     ---   #775
      0245CCH     LINE      ---       ---     ---   #776
      0245DEH     LINE      ---       ---     ---   #779
      0245E4H     LINE      ---       ---     ---   #781
      0245FAH     LINE      ---       ---     ---   #783
      02460AH     LINE      ---       ---     ---   #784
      024610H     LINE      ---       ---     ---   #785
      024612H     LINE      ---       ---     ---   #787
      024626H     LINE      ---       ---     ---   #788
      02462CH     LINE      ---       ---     ---   #789
      02462EH     LINE      ---       ---     ---   #791
      024642H     LINE      ---       ---     ---   #792
      024648H     LINE      ---       ---     ---   #793
      02464AH     LINE      ---       ---     ---   #795
      02465EH     LINE      ---       ---     ---   #796
      024664H     LINE      ---       ---     ---   #797
      024666H     LINE      ---       ---     ---   #799
      02466EH     LINE      ---       ---     ---   #800
      02466EH     LINE      ---       ---     ---   #801
      024672H     LINE      ---       ---     ---   #802
      024672H     LINE      ---       ---     ---   #846
      024674H     LINE      ---       ---     ---   #847
      ---         BLOCKEND  LVL=0     ---     ---   

      024680H     BLOCK     LVL=0     094AH   ---   BDSP_Identification
      000016H     SYMBOL    AUTO      ---     ---   ePhotoPeak
      00000EH     SYMBOL    REG       ---     ---   iSpdCounter
      024692H     BLOCK     LVL=1     092CH   ---   
      0504EAH     SYMBOL    VAR       ---     ---   photoPeakEnergy
      0504E6H     SYMBOL    VAR       ---     ---   wndNuclideCnt
      000000H     SYMBOL    AUTO      ---     ---   temp1
      000002H     SYMBOL    AUTO      ---     ---   leftBrd
      000004H     SYMBOL    AUTO      ---     ---   rightBrd
      000006H     SYMBOL    AUTO      ---     ---   jNuclideIndex
      000008H     SYMBOL    AUTO      ---     ---   maxIntegralIndex
      00000AH     SYMBOL    AUTO      ---     ---   maxIntegralValue
      00000EH     SYMBOL    AUTO      ---     ---   i
      000010H     SYMBOL    AUTO      ---     ---   j
      000012H     SYMBOL    AUTO      ---     ---   k
      000014H     SYMBOL    AUTO      ---     ---   accTime
      0504E2H     SYMBOL    VAR       ---     ---   fMaxBackground
      0504BAH     SYMBOL    VAR       ---     ---   fMaxData
      ---         BLOCKEND  LVL=1     ---     ---   
      024680H     LINE      ---       ---     ---   #850
L166 LINKER/LOCATER V5.25                                                             12/14/2017  11:31:13  PAGE 91


      024692H     LINE      ---       ---     ---   #851
      024692H     LINE      ---       ---     ---   #855
      024692H     LINE      ---       ---     ---   #856
      024696H     LINE      ---       ---     ---   #857
      02469CH     LINE      ---       ---     ---   #858
      0246A0H     LINE      ---       ---     ---   #860
      0246A4H     LINE      ---       ---     ---   #861
      0246A8H     LINE      ---       ---     ---   #862
      0246B0H     LINE      ---       ---     ---   #863
      0246BCH     LINE      ---       ---     ---   #864
      0246C8H     LINE      ---       ---     ---   #871
      0246DAH     LINE      ---       ---     ---   #873
      0246E0H     LINE      ---       ---     ---   #874
      024706H     LINE      ---       ---     ---   #875
      02470CH     LINE      ---       ---     ---   #876
      024796H     LINE      ---       ---     ---   #877
      0247A8H     LINE      ---       ---     ---   #878
      0247D8H     LINE      ---       ---     ---   #879
      0247FEH     LINE      ---       ---     ---   #880
      024804H     LINE      ---       ---     ---   #881
      024816H     LINE      ---       ---     ---   #887
      024824H     LINE      ---       ---     ---   #889
      024836H     LINE      ---       ---     ---   #892
      02483AH     LINE      ---       ---     ---   #895
      024846H     LINE      ---       ---     ---   #896
      024858H     LINE      ---       ---     ---   #897
      024860H     LINE      ---       ---     ---   #899
      02486EH     LINE      ---       ---     ---   #900
      0248D8H     LINE      ---       ---     ---   #902
      0248E2H     LINE      ---       ---     ---   #903
      02494CH     LINE      ---       ---     ---   #904
      024966H     LINE      ---       ---     ---   #906
      024970H     LINE      ---       ---     ---   #907
      0249DAH     LINE      ---       ---     ---   #908
      0249F4H     LINE      ---       ---     ---   #910
      0249FEH     LINE      ---       ---     ---   #911
      024A68H     LINE      ---       ---     ---   #912
      024A82H     LINE      ---       ---     ---   #914
      024A8EH     LINE      ---       ---     ---   #915
      024AFAH     LINE      ---       ---     ---   #916
      024B14H     LINE      ---       ---     ---   #918
      024B20H     LINE      ---       ---     ---   #919
      024B8AH     LINE      ---       ---     ---   #920
      024BA4H     LINE      ---       ---     ---   #922
      024BB0H     LINE      ---       ---     ---   #923
      024C1AH     LINE      ---       ---     ---   #924
      024C34H     LINE      ---       ---     ---   #926
      024C40H     LINE      ---       ---     ---   #927
      024CAAH     LINE      ---       ---     ---   #928
      024CCEH     LINE      ---       ---     ---   #930
      024D0CH     LINE      ---       ---     ---   #954
      024DE6H     LINE      ---       ---     ---   #972
      024DEEH     LINE      ---       ---     ---   #974
      024DF4H     LINE      ---       ---     ---   #975
      024DF8H     LINE      ---       ---     ---   #977
      024DFAH     LINE      ---       ---     ---   #978
      024E10H     LINE      ---       ---     ---   #980
L166 LINKER/LOCATER V5.25                                                             12/14/2017  11:31:13  PAGE 92


      024E18H     LINE      ---       ---     ---   #982
      024E1EH     LINE      ---       ---     ---   #983
      024E24H     LINE      ---       ---     ---   #985
      024E2AH     LINE      ---       ---     ---   #986
      024E40H     LINE      ---       ---     ---   #988
      024E50H     LINE      ---       ---     ---   #989
      024E56H     LINE      ---       ---     ---   #990
      024E58H     LINE      ---       ---     ---   #991
      024E68H     LINE      ---       ---     ---   #992
      024E6EH     LINE      ---       ---     ---   #993
      024E70H     LINE      ---       ---     ---   #994
      024E84H     LINE      ---       ---     ---   #995
      024E8AH     LINE      ---       ---     ---   #996
      024E8CH     LINE      ---       ---     ---   #997
      024EA0H     LINE      ---       ---     ---   #998
      024EA6H     LINE      ---       ---     ---   #999
      024EA8H     LINE      ---       ---     ---   #1002
      024EACH     LINE      ---       ---     ---   #1003
      024EB0H     LINE      ---       ---     ---   #1004
      024EB0H     LINE      ---       ---     ---   #1005
      024EB4H     LINE      ---       ---     ---   #1006
      024EB4H     LINE      ---       ---     ---   #1008
      024EB4H     LINE      ---       ---     ---   #1018
      024EC0H     LINE      ---       ---     ---   #1019
      024EC8H     LINE      ---       ---     ---   #1022
      024EECH     LINE      ---       ---     ---   #1024
      024EF6H     LINE      ---       ---     ---   #1025
      024EFEH     LINE      ---       ---     ---   #1027
      024F06H     LINE      ---       ---     ---   #1029
      024F0CH     LINE      ---       ---     ---   #1030
      024F76H     LINE      ---       ---     ---   #1032
      024F9AH     LINE      ---       ---     ---   #1034
      024FAAH     LINE      ---       ---     ---   #1035
      024FBAH     LINE      ---       ---     ---   #1037
      024FBEH     LINE      ---       ---     ---   #1039
      ---         BLOCKEND  LVL=0     ---     ---   

      024FCAH     BLOCK     LVL=0     0026H   ---   BDSP_StartSpectrAccumulation
      00000DH     SYMBOL    REG       ---     ---   Mode
      024FCAH     LINE      ---       ---     ---   #1040
      024FCEH     LINE      ---       ---     ---   #1048
      024FD2H     LINE      ---       ---     ---   #1049
      024FD6H     LINE      ---       ---     ---   #1051
      024FDAH     LINE      ---       ---     ---   #1053
      024FE0H     LINE      ---       ---     ---   #1055
      024FE8H     LINE      ---       ---     ---   #1056
      024FECH     LINE      ---       ---     ---   #1058
      ---         BLOCKEND  LVL=0     ---     ---   

      024FF0H     BLOCK     LVL=0     02D8H   ---   BDSP_SpectrAccumulation
      00004BH     SYMBOL    REG       ---     ---   Channel
      00000CH     SYMBOL    AUTO      ---     ---   pData
      025000H     BLOCK     LVL=1     02BCH   ---   
      000000H     SYMBOL    AUTO      ---     ---   i
      000002H     SYMBOL    AUTO      ---     ---   photoPeak
      000004H     SYMBOL    AUTO      ---     ---   spdCounter
      000008H     SYMBOL    AUTO      ---     ---   fCurrentDoseRate
L166 LINKER/LOCATER V5.25                                                             12/14/2017  11:31:13  PAGE 93


      ---         BLOCKEND  LVL=1     ---     ---   
      024FF0H     LINE      ---       ---     ---   #1059
      025000H     LINE      ---       ---     ---   #1060
      025000H     LINE      ---       ---     ---   #1061
      025004H     LINE      ---       ---     ---   #1062
      025008H     LINE      ---       ---     ---   #1063
      025010H     LINE      ---       ---     ---   #1064
      025018H     LINE      ---       ---     ---   #1068
      02504AH     LINE      ---       ---     ---   #1069
      02504EH     LINE      ---       ---     ---   #1070
      0250C0H     LINE      ---       ---     ---   #1071
      0250CEH     LINE      ---       ---     ---   #1072
      0250F6H     LINE      ---       ---     ---   #1073
      0250F6H     LINE      ---       ---     ---   #1075
      025142H     LINE      ---       ---     ---   #1077
      025148H     LINE      ---       ---     ---   #1080
      025150H     LINE      ---       ---     ---   #1084
      025156H     LINE      ---       ---     ---   #1085
      025156H     LINE      ---       ---     ---   #1087
      02518EH     LINE      ---       ---     ---   #1095
      025196H     LINE      ---       ---     ---   #1098
      0251A0H     LINE      ---       ---     ---   #1101
      0251ACH     LINE      ---       ---     ---   #1103
      0251B8H     LINE      ---       ---     ---   #1113
      0251DEH     LINE      ---       ---     ---   #1115
      0251E6H     LINE      ---       ---     ---   #1117
      0251FEH     LINE      ---       ---     ---   #1118
      025212H     LINE      ---       ---     ---   #1119
      025222H     LINE      ---       ---     ---   #1120
      025236H     LINE      ---       ---     ---   #1122
      02523AH     LINE      ---       ---     ---   #1123
      02523AH     LINE      ---       ---     ---   #1124
      025246H     LINE      ---       ---     ---   #1126
      025266H     LINE      ---       ---     ---   #1128
      02526EH     LINE      ---       ---     ---   #1130
      025286H     LINE      ---       ---     ---   #1131
      02529AH     LINE      ---       ---     ---   #1132
      0252AEH     LINE      ---       ---     ---   #1134
      0252B2H     LINE      ---       ---     ---   #1135
      0252B2H     LINE      ---       ---     ---   #1138
      0252B8H     LINE      ---       ---     ---   #1139
      0252BCH     LINE      ---       ---     ---   #1140
      0252BCH     LINE      ---       ---     ---   #1144
      ---         BLOCKEND  LVL=0     ---     ---   

      0252C8H     BLOCK     LVL=0     00DAH   ---   BDSP_ClearData
      0252CAH     BLOCK     LVL=1     00D4H   ---   
      00004DH     SYMBOL    REG       ---     ---   i
      ---         BLOCKEND  LVL=1     ---     ---   
      0252C8H     LINE      ---       ---     ---   #1146
      0252CAH     LINE      ---       ---     ---   #1147
      0252CAH     LINE      ---       ---     ---   #1148
      0252CCH     LINE      ---       ---     ---   #1150
      0252CCH     LINE      ---       ---     ---   #1151
      0252F4H     LINE      ---       ---     ---   #1152
      02531CH     LINE      ---       ---     ---   #1153
      025344H     LINE      ---       ---     ---   #1155
L166 LINKER/LOCATER V5.25                                                             12/14/2017  11:31:13  PAGE 94


      02536CH     LINE      ---       ---     ---   #1156
      025382H     LINE      ---       ---     ---   #1157
      025396H     LINE      ---       ---     ---   #1158
      02539EH     LINE      ---       ---     ---   #1159
      ---         BLOCKEND  LVL=0     ---     ---   

      0253A2H     BLOCK     LVL=0     0060H   ---   BDPS_ClearQuery
      0253A4H     BLOCK     LVL=1     005AH   ---   
      00004DH     SYMBOL    REG       ---     ---   i
      ---         BLOCKEND  LVL=1     ---     ---   
      0253A2H     LINE      ---       ---     ---   #1161
      0253A4H     LINE      ---       ---     ---   #1162
      0253A4H     LINE      ---       ---     ---   #1163
      0253A6H     LINE      ---       ---     ---   #1165
      0253A6H     LINE      ---       ---     ---   #1166
      0253CEH     LINE      ---       ---     ---   #1167
      0253F6H     LINE      ---       ---     ---   #1168
      0253FEH     LINE      ---       ---     ---   #1169
      ---         BLOCKEND  LVL=0     ---     ---   

      025402H     BLOCK     LVL=0     0026H   ---   BDSP_GetCurrentSpectr
      025404H     BLOCK     LVL=1     0020H   ---   
      000000H     SYMBOL    AUTO      ---     ---   channel
      ---         BLOCKEND  LVL=1     ---     ---   
      025402H     LINE      ---       ---     ---   #1172
      025404H     LINE      ---       ---     ---   #1173
      025404H     LINE      ---       ---     ---   #1174
      025408H     LINE      ---       ---     ---   #1176
      02540CH     LINE      ---       ---     ---   #1177
      02541CH     LINE      ---       ---     ---   #1179
      025424H     LINE      ---       ---     ---   #1180
      ---         BLOCKEND  LVL=0     ---     ---   

      025428H     BLOCK     LVL=0     00F0H   ---   BDSP_DEBUG_GetQuerySumSpectr
      00004DH     SYMBOL    REG       ---     ---   channel
      025430H     BLOCK     LVL=1     00E0H   ---   
      00004FH     SYMBOL    REG       ---     ---   i
      00004EH     SYMBOL    REG       ---     ---   j
      ---         BLOCKEND  LVL=1     ---     ---   
      025428H     LINE      ---       ---     ---   #1181
      025430H     LINE      ---       ---     ---   #1182
      025430H     LINE      ---       ---     ---   #1183
      025434H     LINE      ---       ---     ---   #1185
      02545CH     LINE      ---       ---     ---   #1187
      02545EH     LINE      ---       ---     ---   #1188
      025460H     LINE      ---       ---     ---   #1189
      0254F2H     LINE      ---       ---     ---   #1191
      025510H     LINE      ---       ---     ---   #1192
      ---         BLOCKEND  LVL=0     ---     ---   

      025518H     BLOCK     LVL=0     0024H   ---   BDSP_GetChannelSpectr
      000048H     SYMBOL    REG       ---     ---   channel
      025518H     LINE      ---       ---     ---   #1194
      025518H     LINE      ---       ---     ---   #1196
      02553AH     LINE      ---       ---     ---   #1197
      ---         BLOCKEND  LVL=0     ---     ---   

L166 LINKER/LOCATER V5.25                                                             12/14/2017  11:31:13  PAGE 95


      02553CH     BLOCK     LVL=0     0024H   ---   BDSP_GetAccumulationSpectr
      000048H     SYMBOL    REG       ---     ---   Channel
      02553CH     LINE      ---       ---     ---   #1198
      02553CH     LINE      ---       ---     ---   #1200
      02555EH     LINE      ---       ---     ---   #1201
      ---         BLOCKEND  LVL=0     ---     ---   

      025560H     BLOCK     LVL=0     019EH   ---   BDSP_CalculateAngularDiagram
      000008H     SYMBOL    REG       ---     ---   Mode
      025562H     BLOCK     LVL=1     0198H   ---   
      0504FEH     SYMBOL    VAR       ---     ---   pAngleDiagramm
      0504FAH     SYMBOL    VAR       ---     ---   cntMin
      0504F6H     SYMBOL    VAR       ---     ---   cntMax
      00000DH     SYMBOL    REG       ---     ---   i
      601010H     SYMBOL    VAR       ---     ---   sensorArray
      ---         BLOCKEND  LVL=1     ---     ---   
      025560H     LINE      ---       ---     ---   #1203
      025562H     LINE      ---       ---     ---   #1204
      025562H     LINE      ---       ---     ---   #1209
      025564H     LINE      ---       ---     ---   #1215
      02556AH     LINE      ---       ---     ---   #1217
      02556CH     LINE      ---       ---     ---   #1218
      025596H     LINE      ---       ---     ---   #1219
      02559AH     LINE      ---       ---     ---   #1220
      02559CH     LINE      ---       ---     ---   #1223
      02559EH     LINE      ---       ---     ---   #1224
      0255E6H     LINE      ---       ---     ---   #1225
      0255EAH     LINE      ---       ---     ---   #1226
      0255EAH     LINE      ---       ---     ---   #1228
      0255FAH     LINE      ---       ---     ---   #1229
      025602H     LINE      ---       ---     ---   #1231
      025604H     LINE      ---       ---     ---   #1232
      02562EH     LINE      ---       ---     ---   #1233
      025652H     LINE      ---       ---     ---   #1235
      02567CH     LINE      ---       ---     ---   #1236
      0256A0H     LINE      ---       ---     ---   #1238
      0256A4H     LINE      ---       ---     ---   #1239
      0256E6H     LINE      ---       ---     ---   #1241
      0256FAH     LINE      ---       ---     ---   #1243
      ---         BLOCKEND  LVL=0     ---     ---   

      0256FEH     BLOCK     LVL=0     000AH   ---   BDSP_GetAngularDiagram
      0256FEH     LINE      ---       ---     ---   #1245
      0256FEH     LINE      ---       ---     ---   #1273
      025706H     LINE      ---       ---     ---   #1274
      ---         BLOCKEND  LVL=0     ---     ---   

      025708H     BLOCK     LVL=0     0006H   ---   BDSP_GetMaximumAngle
      025708H     LINE      ---       ---     ---   #1277
      025708H     LINE      ---       ---     ---   #1279
      02570CH     LINE      ---       ---     ---   #1280
      ---         BLOCKEND  LVL=0     ---     ---   

      02570EH     BLOCK     LVL=0     0058H   ---   BDSP_GetDose
      025710H     BLOCK     LVL=1     0052H   ---   
      00000CH     SYMBOL    REG       ---     ---   fDose
      00004BH     SYMBOL    REG       ---     ---   i
L166 LINKER/LOCATER V5.25                                                             12/14/2017  11:31:13  PAGE 96


      ---         BLOCKEND  LVL=1     ---     ---   
      02570EH     LINE      ---       ---     ---   #1281
      025710H     LINE      ---       ---     ---   #1282
      025710H     LINE      ---       ---     ---   #1283
      025714H     LINE      ---       ---     ---   #1284
      025716H     LINE      ---       ---     ---   #1286
      025716H     LINE      ---       ---     ---   #1287
      025748H     LINE      ---       ---     ---   #1288
      025750H     LINE      ---       ---     ---   #1289
      025762H     LINE      ---       ---     ---   #1291
      025762H     LINE      ---       ---     ---   #1292
      ---         BLOCKEND  LVL=0     ---     ---   

      025766H     BLOCK     LVL=0     006EH   ---   BDSP_GetDoseRate
      02576AH     BLOCK     LVL=1     0064H   ---   
      00000EH     SYMBOL    REG       ---     ---   fDoseRate
      00004CH     SYMBOL    REG       ---     ---   i
      ---         BLOCKEND  LVL=1     ---     ---   
      025766H     LINE      ---       ---     ---   #1294
      02576AH     LINE      ---       ---     ---   #1295
      02576AH     LINE      ---       ---     ---   #1296
      02576EH     LINE      ---       ---     ---   #1297
      025770H     LINE      ---       ---     ---   #1299
      025770H     LINE      ---       ---     ---   #1300
      02579CH     LINE      ---       ---     ---   #1301
      0257C2H     LINE      ---       ---     ---   #1302
      0257CAH     LINE      ---       ---     ---   #1303
      0257CEH     LINE      ---       ---     ---   #1304
      ---         BLOCKEND  LVL=0     ---     ---   

      0257D4H     BLOCK     LVL=0     0038H   ---   BDSP_GetBackgroundReady
      0257D4H     LINE      ---       ---     ---   #1306
      0257D4H     LINE      ---       ---     ---   #1308
      025804H     LINE      ---       ---     ---   #1309
      025808H     LINE      ---       ---     ---   #1310
      025808H     LINE      ---       ---     ---   #1312
      02580AH     LINE      ---       ---     ---   #1313
      ---         BLOCKEND  LVL=0     ---     ---   

      02580CH     BLOCK     LVL=0     020CH   ---   BDSP_Process
      025810H     BLOCK     LVL=1     0202H   ---   
      00004DH     SYMBOL    REG       ---     ---   i
      00004EH     SYMBOL    REG       ---     ---   changeBufferEventCnt
      ---         BLOCKEND  LVL=1     ---     ---   
      02580CH     LINE      ---       ---     ---   #1316
      025810H     LINE      ---       ---     ---   #1317
      025810H     LINE      ---       ---     ---   #1318
      025812H     LINE      ---       ---     ---   #1319
      025814H     LINE      ---       ---     ---   #1324
      025814H     LINE      ---       ---     ---   #1327
      02583EH     LINE      ---       ---     ---   #1328
      025862H     LINE      ---       ---     ---   #1330
      02588CH     LINE      ---       ---     ---   #1331
      0258D2H     LINE      ---       ---     ---   #1333
      025916H     LINE      ---       ---     ---   #1336
      025926H     LINE      ---       ---     ---   #1338
      025926H     LINE      ---       ---     ---   #1340
L166 LINKER/LOCATER V5.25                                                             12/14/2017  11:31:13  PAGE 97


      025956H     LINE      ---       ---     ---   #1341
      02597AH     LINE      ---       ---     ---   #1344
      02597CH     LINE      ---       ---     ---   #1346
      025982H     LINE      ---       ---     ---   #1348
      02598AH     LINE      ---       ---     ---   #1349
      02598EH     LINE      ---       ---     ---   #1351
      02598EH     LINE      ---       ---     ---   #1353
      025990H     LINE      ---       ---     ---   #1354
      025990H     LINE      ---       ---     ---   #1364
      025992H     LINE      ---       ---     ---   #1366
      025992H     LINE      ---       ---     ---   #1368
      0259BAH     LINE      ---       ---     ---   #1369
      0259E0H     LINE      ---       ---     ---   #1370
      0259E2H     LINE      ---       ---     ---   #1372
      0259E2H     LINE      ---       ---     ---   #1373
      025A08H     LINE      ---       ---     ---   #1374
      025A08H     LINE      ---       ---     ---   #1375
      025A08H     LINE      ---       ---     ---   #1376
      025A12H     LINE      ---       ---     ---   #1385
      ---         BLOCKEND  LVL=0     ---     ---   

      025A18H     BLOCK     LVL=0     000CH   ---   BDSP_SetMeasureNumber
      000048H     SYMBOL    REG       ---     ---   MeasureNum
      025A18H     LINE      ---       ---     ---   #1386
      025A18H     LINE      ---       ---     ---   #1388
      025A22H     LINE      ---       ---     ---   #1389
      ---         BLOCKEND  LVL=0     ---     ---   

      025A24H     BLOCK     LVL=0     000AH   ---   BDSP_GetParametrs
      025A24H     LINE      ---       ---     ---   #1391
      025A24H     LINE      ---       ---     ---   #1393
      025A2CH     LINE      ---       ---     ---   #1394
      ---         BLOCKEND  LVL=0     ---     ---   

      025A2EH     BLOCK     LVL=0     003CH   ---   BDSP_GetAccumQueryState
      025A2EH     BLOCK     LVL=1     003AH   ---   
      000084H     SYMBOL    REG       ---     ---   Result
      000082H     SYMBOL    REG       ---     ---   i
      ---         BLOCKEND  LVL=1     ---     ---   
      025A2EH     LINE      ---       ---     ---   #1395
      025A2EH     LINE      ---       ---     ---   #1396
      025A2EH     LINE      ---       ---     ---   #1397
      025A30H     LINE      ---       ---     ---   #1398
      025A32H     LINE      ---       ---     ---   #1400
      025A32H     LINE      ---       ---     ---   #1401
      025A5CH     LINE      ---       ---     ---   #1402
      025A5EH     LINE      ---       ---     ---   #1403
      025A60H     LINE      ---       ---     ---   #1404
      025A66H     LINE      ---       ---     ---   #1407
      025A68H     LINE      ---       ---     ---   #1408
      ---         BLOCKEND  LVL=0     ---     ---   

      025A6AH     BLOCK     LVL=0     0014H   ---   BDSP_GetBackgroundQueryIntegral
      025A6AH     LINE      ---       ---     ---   #1409
      025A6AH     LINE      ---       ---     ---   #1411
      025A7CH     LINE      ---       ---     ---   #1412
      ---         BLOCKEND  LVL=0     ---     ---   
L166 LINKER/LOCATER V5.25                                                             12/14/2017  11:31:13  PAGE 98



      025A7EH     BLOCK     LVL=0     000CH   ---   BDSP_GetMeasureInPointData
      025A7EH     LINE      ---       ---     ---   #1413
      025A7EH     LINE      ---       ---     ---   #1415
      025A86H     LINE      ---       ---     ---   #1416
      ---         BLOCKEND  LVL=0     ---     ---   
      02B1DEH     PUBLIC    LABEL     ---     ---   ?C_FPADD
      02B21CH     PUBLIC    LABEL     ---     ---   ?C_FPXSUB
      02B1DAH     PUBLIC    LABEL     ---     ---   ?C_FPSUB

      02B1DAH     BLOCK     LVL=0     00E8H   ---   ?C_FPSUB
      ---         BLOCKEND  LVL=0     ---     ---   
      02B2C2H     PUBLIC    LABEL     ---     ---   ?C_FPMUL

      02B2C2H     BLOCK     LVL=0     0094H   ---   ?C_FPMUL
      ---         BLOCKEND  LVL=0     ---     ---   
      02B356H     PUBLIC    LABEL     ---     ---   ?C_FPDIV

      02B356H     BLOCK     LVL=0     00C8H   ---   ?C_FPDIV
      ---         BLOCKEND  LVL=0     ---     ---   
      02B41EH     PUBLIC    LABEL     ---     ---   ?C_CASTF

      02B41EH     BLOCK     LVL=0     005CH   ---   ?C_CASTF
      ---         BLOCKEND  LVL=0     ---     ---   
      02B47AH     PUBLIC    LABEL     ---     ---   ?C_FCAST

      02B47AH     BLOCK     LVL=0     0046H   ---   ?C_FCAST
      ---         BLOCKEND  LVL=0     ---     ---   
      02B4C0H     PUBLIC    LABEL     ---     ---   ?C_FPCMP

      02B4C0H     BLOCK     LVL=0     0082H   ---   ?C_FPCMP
      ---         BLOCKEND  LVL=0     ---     ---   
      02B542H     PUBLIC    LABEL     ---     ---   log
      02B61CH     PUBLIC    LABEL     ---     ---   log10

      02B542H     BLOCK     LVL=0     00DAH   ---   log
      ---         BLOCKEND  LVL=0     ---     ---   

      02B61CH     BLOCK     LVL=0     0012H   ---   log10
      ---         BLOCKEND  LVL=0     ---     ---   
      02B62EH     PUBLIC    LABEL     ---     ---   sqrt

      02B62EH     BLOCK     LVL=0     00B0H   ---   sqrt
      ---         BLOCKEND  LVL=0     ---     ---   
      02C6F0H     PUBLIC    LABEL     ---     ---   pow
      02B6DEH     PUBLIC    LABEL     ---     ---   ?C_FPGETOPN
      02B704H     PUBLIC    LABEL     ---     ---   ?C_FPNANRSL
      02B70CH     PUBLIC    LABEL     ---     ---   ?C_FPINFRSL
      02B72EH     PUBLIC    LABEL     ---     ---   ?C_FPNOERR
      02B724H     PUBLIC    LABEL     ---     ---   ?C_FPRSLNR
      02B718H     PUBLIC    LABEL     ---     ---   ?C_FPOPRSL
      02B73CH     PUBLIC    LABEL     ---     ---   ?C_FPZERRSL
      02B73CH     PUBLIC    LABEL     ---     ---   ?C_FPUNFRS

      02B6DEH     BLOCK     LVL=0     0026H   ---   ?C_FPGETOPN
      ---         BLOCKEND  LVL=0     ---     ---   

L166 LINKER/LOCATER V5.25                                                             12/14/2017  11:31:13  PAGE 99


      02B704H     BLOCK     LVL=0     0008H   ---   ?C_FPNANRSL
      ---         BLOCKEND  LVL=0     ---     ---   

      02B70CH     BLOCK     LVL=0     000CH   ---   ?C_FPINFRSL
      ---         BLOCKEND  LVL=0     ---     ---   

      02B718H     BLOCK     LVL=0     0022H   ---   ?C_FPOPRSL
      ---         BLOCKEND  LVL=0     ---     ---   

      02B73AH     BLOCK     LVL=0     0002H   ---   EXIT
      ---         BLOCKEND  LVL=0     ---     ---   

      02B73CH     BLOCK     LVL=0     0006H   ---   ?C_FPZERRSL
      ---         BLOCKEND  LVL=0     ---     ---   
      000015H     PUBLIC    CONST     ---     ---   ?C_FPPRECISION
      000033H     PUBLIC    CONST     ---     ---   ?C_DPPRECISION
      02B742H     PUBLIC    LABEL     ---     ---   ?C_FPNEG

      02B742H     BLOCK     LVL=0     0010H   ---   ?C_FPNEG
      ---         BLOCKEND  LVL=0     ---     ---   
      02B75AH     PUBLIC    LABEL     ---     ---   ?C_FPSERIES
      02B752H     PUBLIC    LABEL     ---     ---   ?C_FP2SERIES

      02B752H     BLOCK     LVL=0     002AH   ---   ?C_FP2SERIES
      ---         BLOCKEND  LVL=0     ---     ---   
      02B77CH     PUBLIC    LABEL     ---     ---   exp

      02B77CH     BLOCK     LVL=0     0090H   ---   exp
      ---         BLOCKEND  LVL=0     ---     ---   
      02B80CH     PUBLIC    LABEL     ---     ---   ?C_LMUL

      02B80CH     BLOCK     LVL=0     0018H   ---   ?C_LMUL
      ---         BLOCKEND  LVL=0     ---     ---   
      02B824H     PUBLIC    LABEL     ---     ---   ?C_ULDIV

      02B824H     BLOCK     LVL=0     0092H   ---   ?C_ULDIV
      ---         BLOCKEND  LVL=0     ---     ---   
      02B8B6H     PUBLIC    LABEL     ---     ---   ?C_HCASTS

      02B8B6H     BLOCK     LVL=0     002EH   ---   ?C_HCASTS
      ---         BLOCKEND  LVL=0     ---     ---   
      02B8E4H     PUBLIC    LABEL     ---     ---   ?C_HLOADL

      02B8E4H     BLOCK     LVL=0     000EH   ---   ?C_HLOADL
      ---         BLOCKEND  LVL=0     ---     ---   
      02B8F2H     PUBLIC    LABEL     ---     ---   ?C_HSTOREL

      02B8F2H     BLOCK     LVL=0     000EH   ---   ?C_HSTOREL
      ---         BLOCKEND  LVL=0     ---     ---   
      02B900H     PUBLIC    LABEL     ---     ---   ?C_HSTOREIU

      02B900H     BLOCK     LVL=0     000EH   ---   ?C_HSTOREIU
      ---         BLOCKEND  LVL=0     ---     ---   
      02B90EH     PUBLIC    LABEL     ---     ---   ?C_HSTORELU

      02B90EH     BLOCK     LVL=0     001EH   ---   ?C_HSTORELU
      ---         BLOCKEND  LVL=0     ---     ---   
L166 LINKER/LOCATER V5.25                                                             12/14/2017  11:31:13  PAGE 100


      02B92CH     PUBLIC    LABEL     ---     ---   ?C_BCPYNX

      02B92CH     BLOCK     LVL=0     0012H   ---   ?C_BCPYNX
      ---         BLOCKEND  LVL=0     ---     ---   
      02C9A6H     PUBLIC    LABEL     ---     ---   memcpy

      02C9A6H     BLOCK     LVL=0     001CH   ---   memcpy
      ---         BLOCKEND  LVL=0     ---     ---   
      02C9C2H     PUBLIC    LABEL     ---     ---   memset
      02C9DAH     PUBLIC    LABEL     ---     ---   abs
      02C958H     PUBLIC    LABEL     ---     ---   init_mempool
      6244E0H     PUBLIC    VAR       ---     ---   __mp__
      02C3D4H     PUBLIC    LABEL     ---     ---   free
      02C888H     PUBLIC    LABEL     ---     ---   malloc
      02C986H     PUBLIC    LABEL     ---     ---   xmemset



FUNCTION REGISTER MASKS


FUNCTION . . . . . . . . . . . . . . REG MASK
=============================================




INTER-MODULE CROSS-REFERENCE LISTING


NAME . . . . . . . . . . . . . . . REP    TGR  MODULE NAMES
===========================================================

?C_BCPYNX. . . . . . . . . . . . . LABEL ---  ?C_BCPYNX  BSL  PROTOCOL  
?C_CASTF . . . . . . . . . . . . . LABEL ---  ?C_CASTF  BDSP  EXP  POW  
?C_CLRMEMSECSTART. . . . . . . . . VAR   ---  ** L166 GENERATED **  
?C_DPPRECISION . . . . . . . . . . CONST ---  ?C_FPEQUATES  
?C_FCAST . . . . . . . . . . . . . LABEL ---  ?C_FCAST  BDGP  BDSP  EXP  LOG  POW  PROTOCOL  
?C_FP2SERIES . . . . . . . . . . . LABEL ---  ?C_FPSERIES  LOG  
?C_FPADD . . . . . . . . . . . . . LABEL ---  ?C_FPADD  ?C_FPSERIES  BDGP  BDMG  BDSP  EXP  LOG  
?C_FPCMP . . . . . . . . . . . . . LABEL ---  ?C_FPCMP  BDGP  BDMG  BDSP  POW  PROCESS  PROTOCOL  
?C_FPDIV . . . . . . . . . . . . . LABEL ---  ?C_FPDIV  BDGP  BDSP  LOG  PROTOCOL  
?C_FPGETOPN. . . . . . . . . . . . LABEL ---  ?C_FPGETOPN  ?C_FPADD  ?C_FPCMP  ?C_FPDIV  ?C_FPMUL  
?C_FPINFRSL. . . . . . . . . . . . LABEL ---  ?C_FPGETOPN  ?C_FPADD  ?C_FPDIV  ?C_FPMUL  EXP  LOG  
?C_FPMUL . . . . . . . . . . . . . LABEL ---  ?C_FPMUL  ?C_FPSERIES  BDGP  BDMG  BDSP  EXP  LOG  POW  PROCESS  PROTOCOL 
                                             
?C_FPNANRSL. . . . . . . . . . . . LABEL ---  ?C_FPGETOPN  ?C_FPADD  ?C_FPDIV  ?C_FPMUL  EXP  LOG  SQRT  
?C_FPNEG . . . . . . . . . . . . . LABEL ---  ?C_FPNEG  POW  
?C_FPNOERR . . . . . . . . . . . . LABEL ---  ?C_FPGETOPN  ?C_FPADD  ?C_FPDIV  ?C_FPMUL  
?C_FPOPRSL . . . . . . . . . . . . LABEL ---  ?C_FPGETOPN  ?C_FPADD  ?C_FPDIV  ?C_FPMUL  SQRT  
?C_FPPRECISION . . . . . . . . . . CONST ---  ?C_FPEQUATES  ?C_FPCMP  
?C_FPRSLNR . . . . . . . . . . . . LABEL ---  ?C_FPGETOPN  ?C_FPADD  ?C_FPDIV  ?C_FPMUL  
?C_FPSERIES. . . . . . . . . . . . LABEL ---  ?C_FPSERIES  EXP  
?C_FPSUB . . . . . . . . . . . . . LABEL ---  ?C_FPADD  BDGP  BDSP  LOG  POW  
?C_FPUNFRS . . . . . . . . . . . . LABEL ---  ?C_FPGETOPN  ?C_FPDIV  EXP  
?C_FPXSUB. . . . . . . . . . . . . LABEL ---  ?C_FPADD  ?C_FPCMP  
?C_FPZERRSL. . . . . . . . . . . . LABEL ---  ?C_FPGETOPN  ?C_FPADD  ?C_FPDIV  ?C_FPMUL  
L166 LINKER/LOCATER V5.25                                                             12/14/2017  11:31:13  PAGE 101


?C_HCASTS. . . . . . . . . . . . . LABEL ---  ?C_HCASTS  BDSP  
?C_HLOADL. . . . . . . . . . . . . LABEL ---  ?C_HLOADL  BDGP  BDMG  BDSP  CAN  FREE  MALLOC  PROCESS  PROTOCOL  
?C_HSTOREIU. . . . . . . . . . . . LABEL ---  ?C_HSTOREIU  BDSP  
?C_HSTOREL . . . . . . . . . . . . LABEL ---  ?C_HSTOREL  BDGP  BDMG  BDSP  CAN  FREE  INIT_MEM  MALLOC  SETTINGS  
?C_HSTORELU. . . . . . . . . . . . LABEL ---  ?C_HSTORELU  BDSP  PROTOCOL  
?C_INITSECSTART. . . . . . . . . . VAR   ---  ** L166 GENERATED **  
?C_LMUL. . . . . . . . . . . . . . LABEL ---  ?C_LMUL  BDSP  
?C_NCONSTBASE. . . . . . . . . . . CONST ---  ** L166 GENERATED **  
?C_NCONSTBASESEG . . . . . . . . . CONST ---  ** L166 GENERATED **  
?C_NDATABASE . . . . . . . . . . . CONST ---  ** L166 GENERATED **  BDGP  BDMG  BDSP  BSL  CAN  PROTOCOL  
?C_NDATABASESEG. . . . . . . . . . CONST ---  ** L166 GENERATED **  BDGP  BDMG  BDSP  BSL  CAN  PROTOCOL  
?C_PAGEDPP0. . . . . . . . . . . . CONST ---  ** L166 GENERATED **  ?C_STARTUP  
?C_PAGEDPP1. . . . . . . . . . . . CONST ---  ** L166 GENERATED **  ?C_STARTUP  
?C_PAGEDPP2. . . . . . . . . . . . CONST ---  ** L166 GENERATED **  ?C_STARTUP  
?C_STARTUP . . . . . . . . . . . . LABEL ---  ?C_STARTUP  MAIN  
?C_SYSSTKBOT . . . . . . . . . . . CONST ---  ?C_STARTUP  
?C_ULDIV . . . . . . . . . . . . . LABEL ---  ?C_ULDIV  ASC0  
?C_USRSTKBOT . . . . . . . . . . . VAR   ---  ?C_STARTUP  
BDGP_BackgroundAccumulation. . . . LABEL ---  BDGP  
BDGP_BackgroundIdentification. . . LABEL ---  BDGP  
BDGP_DataArrayCorrection . . . . . LABEL ---  BDGP  
BDGP_DirectionDiagramm . . . . . . LABEL ---  BDGP  BDSP  
BDGP_ForcedStart . . . . . . . . . LABEL ---  BDGP  PROTOCOL  
BDGP_GetAngularDiagram . . . . . . LABEL ---  BDGP  PROTOCOL  
BDGP_GetAverageDoseRate. . . . . . LABEL ---  BDGP  PROCESS  PROTOCOL  
BDGP_GetBackgroundState. . . . . . LABEL ---  BDGP  PROTOCOL  
BDGP_GetCurrentDoseRate. . . . . . LABEL ---  BDGP  PROTOCOL  
BDGP_GetDose . . . . . . . . . . . LABEL ---  BDGP  PROTOCOL  
BDGP_GetMaximumAngle . . . . . . . LABEL ---  BDGP  PROTOCOL  
BDGP_GetOutsideFeature . . . . . . LABEL ---  BDGP  PROTOCOL  
BDGP_GetParametrs. . . . . . . . . LABEL ---  BDGP  PROTOCOL  
BDGP_InsertCmd . . . . . . . . . . LABEL ---  BDGP  CAN  DEVICES  
BDGP_InsertDataNew . . . . . . . . LABEL ---  BDGP  CAN  
BDGP_InsertParametrs . . . . . . . LABEL ---  BDGP  CAN  
BDGP_MaxCounter. . . . . . . . . . LABEL ---  BDGP  
BDGP_MaxSumSensData. . . . . . . . LABEL ---  BDGP  
BDGP_MinCounter. . . . . . . . . . LABEL ---  BDGP  
BDGP_MinSumSensData. . . . . . . . LABEL ---  BDGP  
BDGP_ParametrRequest . . . . . . . LABEL ---  BDGP  PROTOCOL  
BDGP_Process . . . . . . . . . . . LABEL ---  BDGP  MAIN  
BDGP_Reset . . . . . . . . . . . . LABEL ---  BDGP  DEVICES  
BDGP_ResetBackgroundData . . . . . LABEL ---  BDGP  PROTOCOL  
BDGP_Start . . . . . . . . . . . . LABEL ---  BDGP  PROCESS  
BDGP_StartWritingParametrs . . . . LABEL ---  BDGP  PROTOCOL  
BDGP_Stop. . . . . . . . . . . . . LABEL ---  BDGP  PROCESS  
BDGP_WriteParametr . . . . . . . . LABEL ---  BDGP  
BDGPdirectionCoef. . . . . . . . . VAR   ---  BDGP  
BDMG_ForcedStart . . . . . . . . . LABEL ---  BDMG  PROTOCOL  
BDMG_GetCurrentDose. . . . . . . . LABEL ---  BDMG  PROCESS  PROTOCOL  
BDMG_GetDose . . . . . . . . . . . LABEL ---  BDMG  PROCESS  PROTOCOL  
BDMG_GetInsideFeature. . . . . . . LABEL ---  BDMG  PROTOCOL  
BDMG_GetParametrs. . . . . . . . . LABEL ---  BDMG  PROTOCOL  
BDMG_InsertCmd . . . . . . . . . . LABEL ---  BDMG  CAN  DEVICES  
BDMG_InsertData. . . . . . . . . . LABEL ---  BDMG  CAN  DEVICES  
BDMG_ParametrRequest . . . . . . . LABEL ---  BDMG  PROTOCOL  
BDMG_Reset . . . . . . . . . . . . LABEL ---  BDMG  DEVICES  
BDMG_Start . . . . . . . . . . . . LABEL ---  BDMG  PROCESS  
L166 LINKER/LOCATER V5.25                                                             12/14/2017  11:31:13  PAGE 102


BDMG_StartWritingParametrs . . . . LABEL ---  BDMG  PROTOCOL  
BDMG_Stop. . . . . . . . . . . . . LABEL ---  BDMG  PROCESS  
BDMG_WriteParametr . . . . . . . . LABEL ---  BDMG  
BDPS_ClearQuery. . . . . . . . . . LABEL ---  BDSP  PROTOCOL  
BDSP_BackgroundAccumulation. . . . LABEL ---  BDSP  
BDSP_CalculateAngularDiagram . . . LABEL ---  BDSP  PROTOCOL  
BDSP_CalculateIntegral . . . . . . LABEL ---  BDSP  
BDSP_CalculateQuerySum . . . . . . LABEL ---  BDSP  
BDSP_ChannelInitCheck. . . . . . . LABEL ---  BDSP  PROCESS  
BDSP_ClearData . . . . . . . . . . LABEL ---  BDSP  
BDSP_ClearWorkData . . . . . . . . LABEL ---  BDSP  
BDSP_DEBUG_GetQuerySumSpectr . . . LABEL ---  BDSP  PROTOCOL  
BDSP_GetAccumQueryState. . . . . . LABEL ---  BDSP  
BDSP_GetAccumulationSpectr . . . . LABEL ---  BDSP  PROTOCOL  
BDSP_GetAngularDiagram . . . . . . LABEL ---  BDSP  PROTOCOL  
BDSP_GetBackgroundQueryIntegral. . LABEL ---  BDSP  BDGP  
BDSP_GetBackgroundReady. . . . . . LABEL ---  BDSP  PROTOCOL  
BDSP_GetChannelSpectr. . . . . . . LABEL ---  BDSP  
BDSP_GetCurrentSpectr. . . . . . . LABEL ---  BDSP  PROTOCOL  
BDSP_GetDose . . . . . . . . . . . LABEL ---  BDSP  PROTOCOL  
BDSP_GetDoseRate . . . . . . . . . LABEL ---  BDSP  PROTOCOL  
BDSP_GetMaximumAngle . . . . . . . LABEL ---  BDSP  PROTOCOL  
BDSP_GetMeasureInPointData . . . . LABEL ---  BDSP  PROTOCOL  
BDSP_GetParametrs. . . . . . . . . LABEL ---  BDSP  BDGP  PROTOCOL  
BDSP_Identification. . . . . . . . LABEL ---  BDSP  
BDSP_Identification128 . . . . . . LABEL ---  BDSP  
BDSP_InsertCmd . . . . . . . . . . LABEL ---  BDSP  CAN  DEVICES  
BDSP_InsertData. . . . . . . . . . LABEL ---  BDSP  CAN  DEVICES  
BDSP_InsertInQuery . . . . . . . . LABEL ---  BDSP  
BDSP_MaxCounter. . . . . . . . . . LABEL ---  BDSP  
BDSP_MinCounter. . . . . . . . . . LABEL ---  BDSP  
BDSP_ParametrRequest . . . . . . . LABEL ---  BDSP  
BDSP_ParametrRequests. . . . . . . LABEL ---  BDSP  PROTOCOL  
BDSP_Process . . . . . . . . . . . LABEL ---  BDSP  MAIN  
BDSP_Reset . . . . . . . . . . . . LABEL ---  BDSP  DEVICES  PROCESS  
BDSP_ResetBackgroundData . . . . . LABEL ---  BDSP  PROTOCOL  
BDSP_SetMeasureNumber. . . . . . . LABEL ---  BDSP  PROTOCOL  
BDSP_SetSpectrChannelSize. . . . . LABEL ---  BDSP  
BDSP_SetSpectrSize . . . . . . . . LABEL ---  BDSP  
BDSP_SpectrAccumulation. . . . . . LABEL ---  BDSP  
BDSP_Start . . . . . . . . . . . . LABEL ---  BDSP  PROCESS  PROTOCOL  
BDSP_StartCalbiration. . . . . . . LABEL ---  BDSP  PROTOCOL  
BDSP_StartSpectrAccumulation . . . LABEL ---  BDSP  PROTOCOL  
BDSP_StartWritingParametrs . . . . LABEL ---  BDSP  PROTOCOL  
BDSP_Stop. . . . . . . . . . . . . LABEL ---  BDSP  PROCESS  
BDSP_StopChannel . . . . . . . . . LABEL ---  BDSP  
BDSP_WriteParametr . . . . . . . . LABEL ---  BDSP  
BDSPdirectionCoef. . . . . . . . . VAR   ---  BDGP  
BSL_Init . . . . . . . . . . . . . LABEL ---  BSL  
BSL_Start. . . . . . . . . . . . . LABEL ---  BSL  
CAN_Init . . . . . . . . . . . . . LABEL ---  CAN  MAIN  
CAN_Interrupt0 . . . . . . . . . . LABEL ---  CAN  
CAN_Interrupt1 . . . . . . . . . . LABEL ---  CAN  
CAN_Interrupt10. . . . . . . . . . LABEL ---  CAN  
CAN_Interrupt11. . . . . . . . . . LABEL ---  CAN  
CAN_Interrupt2 . . . . . . . . . . LABEL ---  CAN  
CAN_Interrupt3 . . . . . . . . . . LABEL ---  CAN  
L166 LINKER/LOCATER V5.25                                                             12/14/2017  11:31:13  PAGE 103


CAN_Interrupt4 . . . . . . . . . . LABEL ---  CAN  
CAN_Interrupt5 . . . . . . . . . . LABEL ---  CAN  
CAN_Interrupt6 . . . . . . . . . . LABEL ---  CAN  
CAN_Interrupt7 . . . . . . . . . . LABEL ---  CAN  
CAN_Interrupt8 . . . . . . . . . . LABEL ---  CAN  
CAN_Interrupt9 . . . . . . . . . . LABEL ---  CAN  
CAN_Process. . . . . . . . . . . . LABEL ---  CAN  MAIN  
CAN_SendDefferedMessage. . . . . . LABEL ---  CAN  BDSP  
CAN_SendMessage. . . . . . . . . . LABEL ---  CAN  BDGP  BDMG  BDSP  BSL  
CAN_SendMessageIT. . . . . . . . . LABEL ---  CAN  BDGP  BDMG  BDSP  
Devices_ReceiveMsgCallback . . . . LABEL ---  DEVICES  
Devices_SendStateRequest . . . . . LABEL ---  DEVICES  MAIN  
FLASH_EraseAll . . . . . . . . . . LABEL ---  FLASH  
FLASH_EraseSector. . . . . . . . . LABEL ---  FLASH  SETTINGS  
FLASH_FSRControl . . . . . . . . . LABEL ---  FLASH  SETTINGS  
FLASH_WriteWord. . . . . . . . . . LABEL ---  FLASH  SETTINGS  
IMDBProtocol_CreatePacket. . . . . LABEL ---  PROTOCOL  
IMDBProtocol_GetPacketFromStream . LABEL ---  PROTOCOL  
IMDBProtocol_Init. . . . . . . . . LABEL ---  PROTOCOL  MAIN  
IMDB_BDGPGetParametrsSignalCa... . LABEL ---  PROTOCOL  BDGP  
IMDB_BDGPWriteParametrsSignal... . LABEL ---  PROTOCOL  BDGP  
IMDB_BDMGGetParametrsSignalCa... . LABEL ---  PROTOCOL  BDMG  
IMDB_BDMGWriteParametrsSignal... . LABEL ---  PROTOCOL  BDMG  
IMDB_BDPSGetParametrsSignalCa... . LABEL ---  PROTOCOL  BDSP  
IMDB_BDPSWriteParametrsSignal... . LABEL ---  PROTOCOL  BDSP  
IMDB_DEBUG_SendDataMsg . . . . . . LABEL ---  PROTOCOL  BDSP  
IMDB_Metrology_AllBDParametrR... . LABEL ---  PROTOCOL  
IMDB_Metrology_AllBDWritePara... . LABEL ---  PROTOCOL  
IMDB_Metrology_DefaultSettings . . LABEL ---  PROTOCOL  
IMDB_Metrology_GetBDData . . . . . LABEL ---  PROTOCOL  
IMDB_Metrology_ReadBSParametrs . . LABEL ---  PROTOCOL  
IMDB_Metrology_SendAccumSpect... . LABEL ---  PROTOCOL  
IMDB_Metrology_SendBDParametrs . . LABEL ---  PROTOCOL  
IMDB_Metrology_SendCurrentSpe... . LABEL ---  PROTOCOL  
IMDB_Metrology_SpectrometryMode. . LABEL ---  PROTOCOL  
IMDB_Metrology_StartBD . . . . . . LABEL ---  PROTOCOL  
IMDB_Metrology_WriteBDParametrs. . LABEL ---  PROTOCOL  
IMDB_Metrology_WriteBSParametrs. . LABEL ---  PROTOCOL  
IMDB_NuclideDetectionSignalCa... . LABEL ---  PROTOCOL  BDGP  BDSP  
IMDB_NuclideEndDetectionSigna... . LABEL ---  PROTOCOL  BDGP  BDSP  
IMDB_NuclideIdentificationEnd... . LABEL ---  PROTOCOL  BDSP  
IMDB_NuclideIdentificationSig... . LABEL ---  PROTOCOL  BDSP  
IMDB_PackageAnalysis . . . . . . . LABEL ---  PROTOCOL  
IMDB_Process . . . . . . . . . . . LABEL ---  PROTOCOL  MAIN  
IMDB_ReceiveByteCallback . . . . . LABEL ---  PROTOCOL  ASC0  
IMDB_ReceiveByteReading. . . . . . LABEL ---  PROTOCOL  
IMDB_ResetAllBDSignalCallback. . . LABEL ---  PROTOCOL  
IMDB_SendAccumSpectrSuccess. . . . LABEL ---  PROTOCOL  
IMDB_SendAccumSpectrSuccessSi... . LABEL ---  PROTOCOL  BDSP  
IMDB_SendAngularDistribution . . . LABEL ---  PROTOCOL  
IMDB_SendCalibrationState. . . . . LABEL ---  PROTOCOL  BDSP  
IMDB_SendCanTransmitError. . . . . LABEL ---  PROTOCOL  
IMDB_SendDoseExceeded. . . . . . . LABEL ---  PROTOCOL  PROCESS  
IMDB_SendDoseRateExceeded. . . . . LABEL ---  PROTOCOL  PROCESS  
IMDB_SendError . . . . . . . . . . LABEL ---  PROTOCOL  
IMDB_SendIdentification. . . . . . LABEL ---  PROTOCOL  
IMDB_SendInsideDose. . . . . . . . LABEL ---  PROTOCOL  
L166 LINKER/LOCATER V5.25                                                             12/14/2017  11:31:13  PAGE 104


IMDB_SendInsideDoseFeature . . . . LABEL ---  PROTOCOL  
IMDB_SendInsideDoseRate. . . . . . LABEL ---  PROTOCOL  
IMDB_SendMaxAngle. . . . . . . . . LABEL ---  PROTOCOL  
IMDB_SendMeasureInPointEndSig... . LABEL ---  PROTOCOL  BDSP  
IMDB_SendMeasureInPointSuccess . . LABEL ---  PROTOCOL  
IMDB_SendNuclideDetection. . . . . LABEL ---  PROTOCOL  
IMDB_SendNuclideIdentification . . LABEL ---  PROTOCOL  
IMDB_SendOutsideDoseFeature. . . . LABEL ---  PROTOCOL  
IMDB_SendOutsideDoseRate . . . . . LABEL ---  PROTOCOL  
IMDB_SendPacket. . . . . . . . . . LABEL ---  PROTOCOL  BDGP  BDSP  MAIN  
IMDB_SendReady . . . . . . . . . . LABEL ---  PROTOCOL  PROCESS  
IMDB_SendStartMeasureInPoint . . . LABEL ---  PROTOCOL  
IMDB_SendState . . . . . . . . . . LABEL ---  PROTOCOL  
MainSettings . . . . . . . . . . . VAR   ---  SETTINGS  BDGP  BDSP  PROCESS  PROTOCOL  
Process_BDGPStatus . . . . . . . . LABEL ---  PROCESS  BDGP  MAIN  
Process_BDMGStatus . . . . . . . . LABEL ---  PROCESS  BDMG  MAIN  
Process_BDPSStatus . . . . . . . . LABEL ---  PROCESS  BDSP  MAIN  
Process_GetBDGPState . . . . . . . LABEL ---  PROCESS  PROTOCOL  
Process_GetBDMGState . . . . . . . LABEL ---  PROCESS  PROTOCOL  
Process_GetBDPSStatus. . . . . . . LABEL ---  PROCESS  BDGP  PROTOCOL  
Process_GetInfo. . . . . . . . . . LABEL ---  PROCESS  PROTOCOL  
Process_GetOperationMode . . . . . LABEL ---  PROCESS  BDGP  BDSP  PROTOCOL  
Process_GetWaitCounter . . . . . . LABEL ---  PROCESS  
Process_IMDBStart. . . . . . . . . LABEL ---  PROCESS  BDSP  PROTOCOL  
Process_IMDBStop . . . . . . . . . LABEL ---  PROCESS  PROTOCOL  
Process_Initializetion . . . . . . LABEL ---  PROCESS  MAIN  
Process_MainProc . . . . . . . . . LABEL ---  PROCESS  
Process_ResetWaitCounter . . . . . LABEL ---  PROCESS  PROTOCOL  
Process_SetStatus. . . . . . . . . LABEL ---  PROCESS  BDGP  BDSP  MAIN  PROTOCOL  
SETTINGS_Default . . . . . . . . . LABEL ---  SETTINGS  PROTOCOL  
SETTINGS_Init. . . . . . . . . . . LABEL ---  SETTINGS  MAIN  
SETTINGS_Load. . . . . . . . . . . LABEL ---  SETTINGS  
SETTINGS_Save. . . . . . . . . . . LABEL ---  SETTINGS  PROTOCOL  
SerialNumberBD . . . . . . . . . . VAR   ---  MAIN  CAN  
ServiceMsg . . . . . . . . . . . . VAR   ---  VERS79511901  PROTOCOL  
System_Delay . . . . . . . . . . . LABEL ---  SYSTEM  CAN  PROTOCOL  
System_LEDPulse. . . . . . . . . . LABEL ---  SYSTEM  
System_LEDState. . . . . . . . . . LABEL ---  SYSTEM  MAIN  
System_RAMTest . . . . . . . . . . LABEL ---  SYSTEM  MAIN  
System_Reset . . . . . . . . . . . LABEL ---  SYSTEM  PROTOCOL  
System_WDT_Reset . . . . . . . . . LABEL ---  SYSTEM  
__mp__ . . . . . . . . . . . . . . VAR   ---  INIT_MEM  FREE  MALLOC  
_timer1. . . . . . . . . . . . . . LABEL ---  SYSTEM  
_timer3. . . . . . . . . . . . . . LABEL ---  SYSTEM  
abs. . . . . . . . . . . . . . . . LABEL ---  ABS  BDGP  
autoModeBDMGMsg. . . . . . . . . . VAR   ---  BDMG  
counter. . . . . . . . . . . . . . VAR   ---  PROCESS  
exp. . . . . . . . . . . . . . . . LABEL ---  EXP  POW  
fNormalBDSPFactor. . . . . . . . . VAR   ---  BDGP  
free . . . . . . . . . . . . . . . LABEL ---  FREE  PROTOCOL  
getDeadTime1Msg. . . . . . . . . . VAR   ---  BDMG  
getDeadTime2Msg. . . . . . . . . . VAR   ---  BDMG  
getDeadTime3Msg. . . . . . . . . . VAR   ---  BDMG  
init_asc0. . . . . . . . . . . . . LABEL ---  ASC0  MAIN  
init_mempool . . . . . . . . . . . LABEL ---  INIT_MEM  MAIN  
interruptBuffer. . . . . . . . . . VAR   ---  PROTOCOL  
log. . . . . . . . . . . . . . . . LABEL ---  LOG  BDGP  POW  
L166 LINKER/LOCATER V5.25                                                             12/14/2017  11:31:13  PAGE 105


log10. . . . . . . . . . . . . . . LABEL ---  LOG  
mResetBDSP . . . . . . . . . . . . VAR   ---  BDSP  
mSpectrDoseRateOn. . . . . . . . . VAR   ---  BDSP  
mSpectrGetAlignFctr. . . . . . . . VAR   ---  BDSP  
mSpectrGetCorrFctr . . . . . . . . VAR   ---  BDSP  
mSpectrGetDeadTime . . . . . . . . VAR   ---  BDSP  
mSpectrSize1024. . . . . . . . . . VAR   ---  BDSP  
mSpectrSize128 . . . . . . . . . . VAR   ---  BDSP  
mSpectrStartCalibration. . . . . . VAR   ---  BDSP  
mStartBDSP . . . . . . . . . . . . VAR   ---  BDSP  
mStopBDSP. . . . . . . . . . . . . VAR   ---  BDSP  
main . . . . . . . . . . . . . . . LABEL ---  MAIN  ?C_STARTUP  
malloc . . . . . . . . . . . . . . LABEL ---  MALLOC  PROTOCOL  
malloc_mempool . . . . . . . . . . VAR   ---  MAIN  
memcpy . . . . . . . . . . . . . . LABEL ---  MEMCPY  BDGP  BDMG  BDSP  CAN  PROTOCOL  
memset . . . . . . . . . . . . . . LABEL ---  MEMSET  BDGP  BDMG  BDSP  CAN  PROCESS  PROTOCOL  
pow. . . . . . . . . . . . . . . . LABEL ---  POW  BDGP  
processByte. . . . . . . . . . . . VAR   ---  PROCESS  
rIndex . . . . . . . . . . . . . . VAR   ---  PROTOCOL  
ramTestOK. . . . . . . . . . . . . VAR   ---  MAIN  
receiveBuffer. . . . . . . . . . . VAR   ---  PROTOCOL  
resetBDGPMsg . . . . . . . . . . . VAR   ---  BDGP  
resetBDMGMsg . . . . . . . . . . . VAR   ---  BDMG  
sendbyte . . . . . . . . . . . . . LABEL ---  ASC0  PROTOCOL  
serial_RX_irq. . . . . . . . . . . LABEL ---  ASC0  
serial_TX_BUF_irc. . . . . . . . . LABEL ---  ASC0  
serial_TX_irq. . . . . . . . . . . LABEL ---  ASC0  
sqrt . . . . . . . . . . . . . . . LABEL ---  SQRT  BDGP  BDSP  
startBDGPMsg . . . . . . . . . . . VAR   ---  BDGP  
startBDMGMsg . . . . . . . . . . . VAR   ---  BDMG  
stopBDGPMsg. . . . . . . . . . . . VAR   ---  BDGP  
stopBDMGMsg. . . . . . . . . . . . VAR   ---  BDMG  
testMS . . . . . . . . . . . . . . VAR   ---  PROTOCOL  
xmemset. . . . . . . . . . . . . . LABEL ---  XMEMSET  SYSTEM  

Program Size: data=150038(near=1330) const=1983(near=103) code=43432
L166 RUN COMPLETE.  0 WARNING(S),  0 ERROR(S)
